
/home/adam/workspace/century-os/bin/i686/boot/loader.elf:     file format elf32-i386


Disassembly of section .text:

00100000 <_loaderStart>:
  100000:	02 b0 ad 1b 06 00    	add    0x61bad(%eax),%dh
  100006:	00 00                	add    %al,(%eax)
  100008:	f8                   	clc    
  100009:	4f                   	dec    %edi
  10000a:	52                   	push   %edx
  10000b:	e4 00                	in     $0x0,%al
	...
  100025:	04 00                	add    $0x0,%al
  100027:	00 00                	add    %al,(%eax)
  100029:	03 00                	add    (%eax),%eax
  10002b:	00 10                	add    %dl,(%eax)
  10002d:	00 00                	add    %al,(%eax)
	...

00100030 <MultibootHeader2>:
  100030:	d6                   	(bad)  
  100031:	50                   	push   %eax
  100032:	52                   	push   %edx
  100033:	e8 00 00 00 00       	call   100038 <MultibootHeader2+0x8>
  100038:	48                   	dec    %eax
  100039:	00 00                	add    %al,(%eax)
  10003b:	00 e2                	add    %ah,%dl
  10003d:	ae                   	scas   %es:(%edi),%al
  10003e:	ad                   	lods   %ds:(%esi),%eax
  10003f:	17                   	pop    %ss

00100040 <Type4Start>:
  100040:	04 00                	add    $0x0,%al
  100042:	01 00                	add    %eax,(%eax)
  100044:	0c 00                	or     $0x0,%al
  100046:	00 00                	add    %al,(%eax)
  100048:	00 00                	add    %al,(%eax)
	...

0010004c <Type4End>:
  10004c:	90                   	nop
  10004d:	90                   	nop
  10004e:	90                   	nop
  10004f:	90                   	nop

00100050 <Type5Start>:
  100050:	05 00 01 00 14       	add    $0x14000100,%eax
  100055:	00 00                	add    %al,(%eax)
  100057:	00 00                	add    %al,(%eax)
  100059:	04 00                	add    $0x0,%al
  10005b:	00 00                	add    %al,(%eax)
  10005d:	03 00                	add    (%eax),%eax
  10005f:	00 10                	add    %dl,(%eax)
  100061:	00 00                	add    %al,(%eax)
	...

00100064 <Type5End>:
  100064:	90                   	nop
  100065:	90                   	nop
  100066:	90                   	nop
  100067:	90                   	nop

00100068 <Type6Start>:
  100068:	06                   	push   %es
  100069:	00 01                	add    %al,(%ecx)
  10006b:	00 08                	add    %cl,(%eax)
  10006d:	00 00                	add    %al,(%eax)
	...

00100070 <Type6End>:
  100070:	00 00                	add    %al,(%eax)
  100072:	00 00                	add    %al,(%eax)
  100074:	08 00                	or     %al,(%eax)
	...

00100078 <GdtDesc>:
  100078:	7f 00                	jg     10007a <GdtDesc+0x2>
  10007a:	00 00                	add    %al,(%eax)
	...

0010007e <_start>:
  10007e:	50                   	push   %eax
  10007f:	53                   	push   %ebx
  100080:	68 80 00 00 00       	push   $0x80
  100085:	8d 05 20 90 11 00    	lea    0x119020,%eax
  10008b:	50                   	push   %eax
  10008c:	6a 00                	push   $0x0
  10008e:	e8 ed 1a 00 00       	call   101b80 <kMemMove>
  100093:	83 c4 0c             	add    $0xc,%esp
  100096:	5b                   	pop    %ebx
  100097:	58                   	pop    %eax
  100098:	b9 78 00 10 00       	mov    $0x100078,%ecx
  10009d:	0f 01 11             	lgdtl  (%ecx)
  1000a0:	b9 40 00 00 00       	mov    $0x40,%ecx
  1000a5:	8e d9                	mov    %ecx,%ds
  1000a7:	8e c1                	mov    %ecx,%es
  1000a9:	8e e1                	mov    %ecx,%fs
  1000ab:	8e e9                	mov    %ecx,%gs
  1000ad:	8e d1                	mov    %ecx,%ss
  1000af:	bc 04 b0 11 00       	mov    $0x11b004,%esp
  1000b4:	6a 38                	push   $0x38
  1000b6:	68 bc 00 10 00       	push   $0x1000bc
  1000bb:	cb                   	lret   

001000bc <newGDT>:
  1000bc:	3d 02 b0 ad 2b       	cmp    $0x2badb002,%eax
  1000c1:	75 08                	jne    1000cb <chkMB2>
  1000c3:	89 1d 4c b3 11 00    	mov    %ebx,0x11b34c
  1000c9:	eb 0d                	jmp    1000d8 <ldrMain>

001000cb <chkMB2>:
  1000cb:	3d 89 62 d7 36       	cmp    $0x36d76289,%eax
  1000d0:	75 06                	jne    1000d8 <ldrMain>
  1000d2:	89 1d 50 b3 11 00    	mov    %ebx,0x11b350

001000d8 <ldrMain>:
  1000d8:	e9 d3 05 00 00       	jmp    1006b0 <LoaderMain>

001000dd <Halt>:
  1000dd:	fa                   	cli    
  1000de:	f4                   	hlt    
  1000df:	eb fc                	jmp    1000dd <Halt>
  1000e1:	66 90                	xchg   %ax,%ax
  1000e3:	66 90                	xchg   %ax,%ax
  1000e5:	66 90                	xchg   %ax,%ax
  1000e7:	66 90                	xchg   %ax,%ax
  1000e9:	66 90                	xchg   %ax,%ax
  1000eb:	66 90                	xchg   %ax,%ax
  1000ed:	66 90                	xchg   %ax,%ax
  1000ef:	90                   	nop

001000f0 <_Z7BdaReadv>:
  1000f0:	53                   	push   %ebx
  1000f1:	e8 86 00 00 00       	call   10017c <__x86.get_pc_thunk.bx>
  1000f6:	81 c3 82 89 01 00    	add    $0x18982,%ebx
  1000fc:	83 ec 14             	sub    $0x14,%esp
  1000ff:	8d 83 88 a5 fe ff    	lea    -0x15a78(%ebx),%eax
  100105:	50                   	push   %eax
  100106:	e8 25 1a 00 00       	call   101b30 <_Z10SerialPutSPKc>
  10010b:	c7 c0 a0 90 11 00    	mov    $0x1190a0,%eax
  100111:	0f b7 15 00 04 00 00 	movzwl 0x400,%edx
  100118:	8b 00                	mov    (%eax),%eax
  10011a:	66 89 50 04          	mov    %dx,0x4(%eax)
  10011e:	0f b7 15 02 04 00 00 	movzwl 0x402,%edx
  100125:	66 89 50 06          	mov    %dx,0x6(%eax)
  100129:	0f b7 15 04 04 00 00 	movzwl 0x404,%edx
  100130:	66 89 50 08          	mov    %dx,0x8(%eax)
  100134:	0f b7 15 06 04 00 00 	movzwl 0x406,%edx
  10013b:	66 89 50 0a          	mov    %dx,0xa(%eax)
  10013f:	0f b7 15 08 04 00 00 	movzwl 0x408,%edx
  100146:	66 89 50 0c          	mov    %dx,0xc(%eax)
  10014a:	0f b7 15 0a 04 00 00 	movzwl 0x40a,%edx
  100151:	66 89 50 0e          	mov    %dx,0xe(%eax)
  100155:	0f b7 15 0c 04 00 00 	movzwl 0x40c,%edx
  10015c:	66 89 50 10          	mov    %dx,0x10(%eax)
  100160:	0f b7 15 63 04 00 00 	movzwl 0x463,%edx
  100167:	66 89 50 12          	mov    %dx,0x12(%eax)
  10016b:	0f b7 15 0e 04 00 00 	movzwl 0x40e,%edx
  100172:	c1 e2 04             	shl    $0x4,%edx
  100175:	89 10                	mov    %edx,(%eax)
  100177:	83 c4 18             	add    $0x18,%esp
  10017a:	5b                   	pop    %ebx
  10017b:	c3                   	ret    

0010017c <__x86.get_pc_thunk.bx>:
  10017c:	8b 1c 24             	mov    (%esp),%ebx
  10017f:	c3                   	ret    

00100180 <DisableInterrupts>:
  100180:	9c                   	pushf  
  100181:	58                   	pop    %eax
  100182:	fa                   	cli    
  100183:	c3                   	ret    
  100184:	66 90                	xchg   %ax,%ax
  100186:	66 90                	xchg   %ax,%ax
  100188:	66 90                	xchg   %ax,%ax
  10018a:	66 90                	xchg   %ax,%ax
  10018c:	66 90                	xchg   %ax,%ax
  10018e:	66 90                	xchg   %ax,%ax

00100190 <EnableInterrupts>:
  100190:	fb                   	sti    
  100191:	c3                   	ret    
  100192:	66 90                	xchg   %ax,%ax
  100194:	66 90                	xchg   %ax,%ax
  100196:	66 90                	xchg   %ax,%ax
  100198:	66 90                	xchg   %ax,%ax
  10019a:	66 90                	xchg   %ax,%ax
  10019c:	66 90                	xchg   %ax,%ax
  10019e:	66 90                	xchg   %ax,%ax

001001a0 <_Z16FrameBufferClearv>:
  1001a0:	56                   	push   %esi
  1001a1:	53                   	push   %ebx
  1001a2:	e8 d5 ff ff ff       	call   10017c <__x86.get_pc_thunk.bx>
  1001a7:	81 c3 d1 88 01 00    	add    $0x188d1,%ebx
  1001ad:	83 ec 08             	sub    $0x8,%esp
  1001b0:	c7 c6 a0 90 11 00    	mov    $0x1190a0,%esi
  1001b6:	8b 06                	mov    (%esi),%eax
  1001b8:	8b 90 14 03 00 00    	mov    0x314(%eax),%edx
  1001be:	0f af 90 18 03 00 00 	imul   0x318(%eax),%edx
  1001c5:	52                   	push   %edx
  1001c6:	0f b7 90 21 03 00 00 	movzwl 0x321(%eax),%edx
  1001cd:	52                   	push   %edx
  1001ce:	ff b0 0c 03 00 00    	pushl  0x30c(%eax)
  1001d4:	e8 e7 19 00 00       	call   101bc0 <kMemSetW>
  1001d9:	8b 06                	mov    (%esi),%eax
  1001db:	31 d2                	xor    %edx,%edx
  1001dd:	31 c9                	xor    %ecx,%ecx
  1001df:	66 89 90 25 03 00 00 	mov    %dx,0x325(%eax)
  1001e6:	66 89 88 27 03 00 00 	mov    %cx,0x327(%eax)
  1001ed:	83 c4 14             	add    $0x14,%esp
  1001f0:	5b                   	pop    %ebx
  1001f1:	5e                   	pop    %esi
  1001f2:	c3                   	ret    
  1001f3:	66 90                	xchg   %ax,%ax
  1001f5:	66 90                	xchg   %ax,%ax
  1001f7:	66 90                	xchg   %ax,%ax
  1001f9:	66 90                	xchg   %ax,%ax
  1001fb:	66 90                	xchg   %ax,%ax
  1001fd:	66 90                	xchg   %ax,%ax
  1001ff:	90                   	nop

00100200 <_Z19FrameBufferDrawCharc>:
  100200:	55                   	push   %ebp
  100201:	57                   	push   %edi
  100202:	e8 3e 01 00 00       	call   100345 <__x86.get_pc_thunk.dx>
  100207:	81 c2 71 88 01 00    	add    $0x18871,%edx
  10020d:	56                   	push   %esi
  10020e:	53                   	push   %ebx
  10020f:	83 ec 08             	sub    $0x8,%esp
  100212:	c7 c1 a0 90 11 00    	mov    $0x1190a0,%ecx
  100218:	8b 44 24 1c          	mov    0x1c(%esp),%eax
  10021c:	8b 31                	mov    (%ecx),%esi
  10021e:	0f b7 8e 25 03 00 00 	movzwl 0x325(%esi),%ecx
  100225:	83 f9 2d             	cmp    $0x2d,%ecx
  100228:	0f 8f ba 00 00 00    	jg     1002e8 <_Z19FrameBufferDrawCharc+0xe8>
  10022e:	84 c0                	test   %al,%al
  100230:	0f 88 ba 00 00 00    	js     1002f0 <_Z19FrameBufferDrawCharc+0xf0>
  100236:	3c 0a                	cmp    $0xa,%al
  100238:	89 cb                	mov    %ecx,%ebx
  10023a:	0f 84 ea 00 00 00    	je     10032a <_Z19FrameBufferDrawCharc+0x12a>
  100240:	3c 09                	cmp    $0x9,%al
  100242:	0f 84 be 00 00 00    	je     100306 <_Z19FrameBufferDrawCharc+0x106>
  100248:	0f be c0             	movsbl %al,%eax
  10024b:	c1 e0 04             	shl    $0x4,%eax
  10024e:	8b 9e 14 03 00 00    	mov    0x314(%esi),%ebx
  100254:	81 c0 7c 34 10 00    	add    $0x10347c,%eax
  10025a:	89 df                	mov    %ebx,%edi
  10025c:	c1 e7 04             	shl    $0x4,%edi
  10025f:	0f af cf             	imul   %edi,%ecx
  100262:	0f b7 be 27 03 00 00 	movzwl 0x327(%esi),%edi
  100269:	8d 3c f9             	lea    (%ecx,%edi,8),%edi
  10026c:	8b 8e 0c 03 00 00    	mov    0x30c(%esi),%ecx
  100272:	8d 2c 79             	lea    (%ecx,%edi,2),%ebp
  100275:	8d 3c 1b             	lea    (%ebx,%ebx,1),%edi
  100278:	89 7c 24 04          	mov    %edi,0x4(%esp)
  10027c:	89 c7                	mov    %eax,%edi
  10027e:	8d 40 10             	lea    0x10(%eax),%eax
  100281:	89 04 24             	mov    %eax,(%esp)
  100284:	8d b6 00 00 00 00    	lea    0x0(%esi),%esi
  10028a:	8d bf 00 00 00 00    	lea    0x0(%edi),%edi
  100290:	0f b6 17             	movzbl (%edi),%edx
  100293:	89 e8                	mov    %ebp,%eax
  100295:	8d 5d 10             	lea    0x10(%ebp),%ebx
  100298:	eb 1c                	jmp    1002b6 <_Z19FrameBufferDrawCharc+0xb6>
  10029a:	8d b6 00 00 00 00    	lea    0x0(%esi),%esi
  1002a0:	0f b7 96 23 03 00 00 	movzwl 0x323(%esi),%edx
  1002a7:	83 c0 02             	add    $0x2,%eax
  1002aa:	d1 e9                	shr    %ecx
  1002ac:	66 89 50 fe          	mov    %dx,-0x2(%eax)
  1002b0:	39 c3                	cmp    %eax,%ebx
  1002b2:	89 ca                	mov    %ecx,%edx
  1002b4:	74 1e                	je     1002d4 <_Z19FrameBufferDrawCharc+0xd4>
  1002b6:	0f b6 ca             	movzbl %dl,%ecx
  1002b9:	83 e2 01             	and    $0x1,%edx
  1002bc:	75 e2                	jne    1002a0 <_Z19FrameBufferDrawCharc+0xa0>
  1002be:	0f b7 96 21 03 00 00 	movzwl 0x321(%esi),%edx
  1002c5:	83 c0 02             	add    $0x2,%eax
  1002c8:	d1 e9                	shr    %ecx
  1002ca:	66 89 50 fe          	mov    %dx,-0x2(%eax)
  1002ce:	39 c3                	cmp    %eax,%ebx
  1002d0:	89 ca                	mov    %ecx,%edx
  1002d2:	75 e2                	jne    1002b6 <_Z19FrameBufferDrawCharc+0xb6>
  1002d4:	03 6c 24 04          	add    0x4(%esp),%ebp
  1002d8:	83 c7 01             	add    $0x1,%edi
  1002db:	39 3c 24             	cmp    %edi,(%esp)
  1002de:	75 b0                	jne    100290 <_Z19FrameBufferDrawCharc+0x90>
  1002e0:	66 83 86 27 03 00 00 	addw   $0x1,0x327(%esi)
  1002e7:	01 
  1002e8:	83 c4 08             	add    $0x8,%esp
  1002eb:	5b                   	pop    %ebx
  1002ec:	5e                   	pop    %esi
  1002ed:	5f                   	pop    %edi
  1002ee:	5d                   	pop    %ebp
  1002ef:	c3                   	ret    
  1002f0:	25 c0 00 00 00       	and    $0xc0,%eax
  1002f5:	3d c0 00 00 00       	cmp    $0xc0,%eax
  1002fa:	75 ec                	jne    1002e8 <_Z19FrameBufferDrawCharc+0xe8>
  1002fc:	b8 f0 03 00 00       	mov    $0x3f0,%eax
  100301:	e9 48 ff ff ff       	jmp    10024e <_Z19FrameBufferDrawCharc+0x4e>
  100306:	0f b7 86 27 03 00 00 	movzwl 0x327(%esi),%eax
  10030d:	8b 96 14 03 00 00    	mov    0x314(%esi),%edx
  100313:	c1 ea 03             	shr    $0x3,%edx
  100316:	83 e0 f8             	and    $0xfffffff8,%eax
  100319:	83 c0 08             	add    $0x8,%eax
  10031c:	66 89 86 27 03 00 00 	mov    %ax,0x327(%esi)
  100323:	0f b7 c0             	movzwl %ax,%eax
  100326:	39 d0                	cmp    %edx,%eax
  100328:	76 be                	jbe    1002e8 <_Z19FrameBufferDrawCharc+0xe8>
  10032a:	83 c3 01             	add    $0x1,%ebx
  10032d:	31 c0                	xor    %eax,%eax
  10032f:	66 89 86 27 03 00 00 	mov    %ax,0x327(%esi)
  100336:	66 89 9e 25 03 00 00 	mov    %bx,0x325(%esi)
  10033d:	83 c4 08             	add    $0x8,%esp
  100340:	5b                   	pop    %ebx
  100341:	5e                   	pop    %esi
  100342:	5f                   	pop    %edi
  100343:	5d                   	pop    %ebp
  100344:	c3                   	ret    

00100345 <__x86.get_pc_thunk.dx>:
  100345:	8b 14 24             	mov    (%esp),%edx
  100348:	c3                   	ret    
  100349:	66 90                	xchg   %ax,%ax
  10034b:	66 90                	xchg   %ax,%ax
  10034d:	66 90                	xchg   %ax,%ax
  10034f:	90                   	nop

00100350 <_Z15FrameBufferInitv>:
  100350:	53                   	push   %ebx
  100351:	ba ff ff ff ff       	mov    $0xffffffff,%edx
  100356:	b9 34 12 00 00       	mov    $0x1234,%ecx
  10035b:	e8 1c fe ff ff       	call   10017c <__x86.get_pc_thunk.bx>
  100360:	81 c3 18 87 01 00    	add    $0x18718,%ebx
  100366:	83 ec 08             	sub    $0x8,%esp
  100369:	c7 c0 a0 90 11 00    	mov    $0x1190a0,%eax
  10036f:	8b 00                	mov    (%eax),%eax
  100371:	66 89 90 23 03 00 00 	mov    %dx,0x323(%eax)
  100378:	66 89 88 21 03 00 00 	mov    %cx,0x321(%eax)
  10037f:	e8 1c fe ff ff       	call   1001a0 <_Z16FrameBufferClearv>
  100384:	83 c4 08             	add    $0x8,%esp
  100387:	5b                   	pop    %ebx
  100388:	c3                   	ret    
  100389:	66 90                	xchg   %ax,%ax
  10038b:	66 90                	xchg   %ax,%ax
  10038d:	66 90                	xchg   %ax,%ax
  10038f:	90                   	nop

00100390 <_Z19FrameBufferParseRGBPKc>:
  100390:	55                   	push   %ebp
  100391:	57                   	push   %edi
  100392:	56                   	push   %esi
  100393:	53                   	push   %ebx
  100394:	e8 e3 fd ff ff       	call   10017c <__x86.get_pc_thunk.bx>
  100399:	81 c3 df 86 01 00    	add    $0x186df,%ebx
  10039f:	83 ec 0c             	sub    $0xc,%esp
  1003a2:	8b 74 24 20          	mov    0x20(%esp),%esi
  1003a6:	85 f6                	test   %esi,%esi
  1003a8:	74 11                	je     1003bb <_Z19FrameBufferParseRGBPKc+0x2b>
  1003aa:	83 ec 0c             	sub    $0xc,%esp
  1003ad:	56                   	push   %esi
  1003ae:	e8 5d 18 00 00       	call   101c10 <kStrLen>
  1003b3:	83 c4 10             	add    $0x10,%esp
  1003b6:	83 f8 07             	cmp    $0x7,%eax
  1003b9:	74 15                	je     1003d0 <_Z19FrameBufferParseRGBPKc+0x40>
  1003bb:	83 c4 0c             	add    $0xc,%esp
  1003be:	31 c0                	xor    %eax,%eax
  1003c0:	5b                   	pop    %ebx
  1003c1:	5e                   	pop    %esi
  1003c2:	5f                   	pop    %edi
  1003c3:	5d                   	pop    %ebp
  1003c4:	c3                   	ret    
  1003c5:	8d 74 26 00          	lea    0x0(%esi,%eiz,1),%esi
  1003c9:	8d bc 27 00 00 00 00 	lea    0x0(%edi,%eiz,1),%edi
  1003d0:	80 3e 23             	cmpb   $0x23,(%esi)
  1003d3:	75 e6                	jne    1003bb <_Z19FrameBufferParseRGBPKc+0x2b>
  1003d5:	0f b6 46 01          	movzbl 0x1(%esi),%eax
  1003d9:	8d 50 d0             	lea    -0x30(%eax),%edx
  1003dc:	80 fa 09             	cmp    $0x9,%dl
  1003df:	0f 87 ab 00 00 00    	ja     100490 <_Z19FrameBufferParseRGBPKc+0x100>
  1003e5:	89 c1                	mov    %eax,%ecx
  1003e7:	83 e1 0f             	and    $0xf,%ecx
  1003ea:	c1 e1 04             	shl    $0x4,%ecx
  1003ed:	66 0f be 56 02       	movsbw 0x2(%esi),%dx
  1003f2:	8d 42 d0             	lea    -0x30(%edx),%eax
  1003f5:	3c 09                	cmp    $0x9,%al
  1003f7:	0f 87 bc 00 00 00    	ja     1004b9 <_Z19FrameBufferParseRGBPKc+0x129>
  1003fd:	83 e2 0f             	and    $0xf,%edx
  100400:	09 d1                	or     %edx,%ecx
  100402:	0f b6 56 03          	movzbl 0x3(%esi),%edx
  100406:	8d 42 d0             	lea    -0x30(%edx),%eax
  100409:	3c 09                	cmp    $0x9,%al
  10040b:	0f 87 ca 00 00 00    	ja     1004db <_Z19FrameBufferParseRGBPKc+0x14b>
  100411:	83 e2 0f             	and    $0xf,%edx
  100414:	89 d0                	mov    %edx,%eax
  100416:	c1 e0 04             	shl    $0x4,%eax
  100419:	66 0f be 56 04       	movsbw 0x4(%esi),%dx
  10041e:	8d 5a d0             	lea    -0x30(%edx),%ebx
  100421:	80 fb 09             	cmp    $0x9,%bl
  100424:	0f 87 da 00 00 00    	ja     100504 <_Z19FrameBufferParseRGBPKc+0x174>
  10042a:	83 e2 0f             	and    $0xf,%edx
  10042d:	09 c2                	or     %eax,%edx
  10042f:	0f b6 46 05          	movzbl 0x5(%esi),%eax
  100433:	89 d5                	mov    %edx,%ebp
  100435:	8d 58 d0             	lea    -0x30(%eax),%ebx
  100438:	80 fb 09             	cmp    $0x9,%bl
  10043b:	0f 87 e9 00 00 00    	ja     10052a <_Z19FrameBufferParseRGBPKc+0x19a>
  100441:	89 c3                	mov    %eax,%ebx
  100443:	83 e3 0f             	and    $0xf,%ebx
  100446:	c1 e3 04             	shl    $0x4,%ebx
  100449:	66 0f be 46 06       	movsbw 0x6(%esi),%ax
  10044e:	8d 70 d0             	lea    -0x30(%eax),%esi
  100451:	89 f2                	mov    %esi,%edx
  100453:	80 fa 09             	cmp    $0x9,%dl
  100456:	0f 87 fa 00 00 00    	ja     100556 <_Z19FrameBufferParseRGBPKc+0x1c6>
  10045c:	89 c6                	mov    %eax,%esi
  10045e:	83 e6 0f             	and    $0xf,%esi
  100461:	8d 04 ed 00 00 00 00 	lea    0x0(,%ebp,8),%eax
  100468:	c1 f9 03             	sar    $0x3,%ecx
  10046b:	09 f3                	or     %esi,%ebx
  10046d:	c1 e1 0b             	shl    $0xb,%ecx
  100470:	83 c4 0c             	add    $0xc,%esp
  100473:	c1 fb 03             	sar    $0x3,%ebx
  100476:	25 e0 07 00 00       	and    $0x7e0,%eax
  10047b:	09 c8                	or     %ecx,%eax
  10047d:	09 d8                	or     %ebx,%eax
  10047f:	5b                   	pop    %ebx
  100480:	5e                   	pop    %esi
  100481:	5f                   	pop    %edi
  100482:	5d                   	pop    %ebp
  100483:	c3                   	ret    
  100484:	8d b6 00 00 00 00    	lea    0x0(%esi),%esi
  10048a:	8d bf 00 00 00 00    	lea    0x0(%edi),%edi
  100490:	8d 50 9f             	lea    -0x61(%eax),%edx
  100493:	80 fa 05             	cmp    $0x5,%dl
  100496:	0f 87 d4 00 00 00    	ja     100570 <_Z19FrameBufferParseRGBPKc+0x1e0>
  10049c:	66 0f be 56 02       	movsbw 0x2(%esi),%dx
  1004a1:	66 0f be c8          	movsbw %al,%cx
  1004a5:	83 e9 57             	sub    $0x57,%ecx
  1004a8:	0f b7 c9             	movzwl %cx,%ecx
  1004ab:	c1 e1 04             	shl    $0x4,%ecx
  1004ae:	8d 42 d0             	lea    -0x30(%edx),%eax
  1004b1:	3c 09                	cmp    $0x9,%al
  1004b3:	0f 86 44 ff ff ff    	jbe    1003fd <_Z19FrameBufferParseRGBPKc+0x6d>
  1004b9:	8d 42 9f             	lea    -0x61(%edx),%eax
  1004bc:	3c 05                	cmp    $0x5,%al
  1004be:	0f 87 cc 00 00 00    	ja     100590 <_Z19FrameBufferParseRGBPKc+0x200>
  1004c4:	83 ea 57             	sub    $0x57,%edx
  1004c7:	0f b7 d2             	movzwl %dx,%edx
  1004ca:	09 d1                	or     %edx,%ecx
  1004cc:	0f b6 56 03          	movzbl 0x3(%esi),%edx
  1004d0:	8d 42 d0             	lea    -0x30(%edx),%eax
  1004d3:	3c 09                	cmp    $0x9,%al
  1004d5:	0f 86 36 ff ff ff    	jbe    100411 <_Z19FrameBufferParseRGBPKc+0x81>
  1004db:	8d 42 9f             	lea    -0x61(%edx),%eax
  1004de:	3c 05                	cmp    $0x5,%al
  1004e0:	0f 87 ea 00 00 00    	ja     1005d0 <_Z19FrameBufferParseRGBPKc+0x240>
  1004e6:	66 0f be c2          	movsbw %dl,%ax
  1004ea:	66 0f be 56 04       	movsbw 0x4(%esi),%dx
  1004ef:	83 e8 57             	sub    $0x57,%eax
  1004f2:	0f b7 c0             	movzwl %ax,%eax
  1004f5:	c1 e0 04             	shl    $0x4,%eax
  1004f8:	8d 5a d0             	lea    -0x30(%edx),%ebx
  1004fb:	80 fb 09             	cmp    $0x9,%bl
  1004fe:	0f 86 26 ff ff ff    	jbe    10042a <_Z19FrameBufferParseRGBPKc+0x9a>
  100504:	8d 5a 9f             	lea    -0x61(%edx),%ebx
  100507:	80 fb 05             	cmp    $0x5,%bl
  10050a:	0f 87 10 01 00 00    	ja     100620 <_Z19FrameBufferParseRGBPKc+0x290>
  100510:	83 ea 57             	sub    $0x57,%edx
  100513:	0f b7 d2             	movzwl %dx,%edx
  100516:	09 c2                	or     %eax,%edx
  100518:	0f b6 46 05          	movzbl 0x5(%esi),%eax
  10051c:	89 d5                	mov    %edx,%ebp
  10051e:	8d 58 d0             	lea    -0x30(%eax),%ebx
  100521:	80 fb 09             	cmp    $0x9,%bl
  100524:	0f 86 17 ff ff ff    	jbe    100441 <_Z19FrameBufferParseRGBPKc+0xb1>
  10052a:	8d 58 9f             	lea    -0x61(%eax),%ebx
  10052d:	80 fb 05             	cmp    $0x5,%bl
  100530:	0f 87 ba 00 00 00    	ja     1005f0 <_Z19FrameBufferParseRGBPKc+0x260>
  100536:	66 0f be d8          	movsbw %al,%bx
  10053a:	66 0f be 46 06       	movsbw 0x6(%esi),%ax
  10053f:	83 eb 57             	sub    $0x57,%ebx
  100542:	0f b7 db             	movzwl %bx,%ebx
  100545:	c1 e3 04             	shl    $0x4,%ebx
  100548:	8d 70 d0             	lea    -0x30(%eax),%esi
  10054b:	89 f2                	mov    %esi,%edx
  10054d:	80 fa 09             	cmp    $0x9,%dl
  100550:	0f 86 06 ff ff ff    	jbe    10045c <_Z19FrameBufferParseRGBPKc+0xcc>
  100556:	8d 70 9f             	lea    -0x61(%eax),%esi
  100559:	89 f2                	mov    %esi,%edx
  10055b:	80 fa 05             	cmp    $0x5,%dl
  10055e:	77 50                	ja     1005b0 <_Z19FrameBufferParseRGBPKc+0x220>
  100560:	83 e8 57             	sub    $0x57,%eax
  100563:	0f b7 f0             	movzwl %ax,%esi
  100566:	e9 f6 fe ff ff       	jmp    100461 <_Z19FrameBufferParseRGBPKc+0xd1>
  10056b:	90                   	nop
  10056c:	8d 74 26 00          	lea    0x0(%esi,%eiz,1),%esi
  100570:	8d 50 bf             	lea    -0x41(%eax),%edx
  100573:	31 c9                	xor    %ecx,%ecx
  100575:	80 fa 05             	cmp    $0x5,%dl
  100578:	0f 87 6f fe ff ff    	ja     1003ed <_Z19FrameBufferParseRGBPKc+0x5d>
  10057e:	66 0f be c8          	movsbw %al,%cx
  100582:	83 e9 37             	sub    $0x37,%ecx
  100585:	0f b7 c9             	movzwl %cx,%ecx
  100588:	c1 e1 04             	shl    $0x4,%ecx
  10058b:	e9 5d fe ff ff       	jmp    1003ed <_Z19FrameBufferParseRGBPKc+0x5d>
  100590:	8d 42 bf             	lea    -0x41(%edx),%eax
  100593:	83 ea 37             	sub    $0x37,%edx
  100596:	0f b7 d2             	movzwl %dx,%edx
  100599:	3c 05                	cmp    $0x5,%al
  10059b:	b8 00 00 00 00       	mov    $0x0,%eax
  1005a0:	0f 47 d0             	cmova  %eax,%edx
  1005a3:	e9 58 fe ff ff       	jmp    100400 <_Z19FrameBufferParseRGBPKc+0x70>
  1005a8:	90                   	nop
  1005a9:	8d b4 26 00 00 00 00 	lea    0x0(%esi,%eiz,1),%esi
  1005b0:	8d 78 bf             	lea    -0x41(%eax),%edi
  1005b3:	83 e8 37             	sub    $0x37,%eax
  1005b6:	be 00 00 00 00       	mov    $0x0,%esi
  1005bb:	0f b7 c0             	movzwl %ax,%eax
  1005be:	89 fa                	mov    %edi,%edx
  1005c0:	80 fa 05             	cmp    $0x5,%dl
  1005c3:	0f 46 f0             	cmovbe %eax,%esi
  1005c6:	e9 96 fe ff ff       	jmp    100461 <_Z19FrameBufferParseRGBPKc+0xd1>
  1005cb:	90                   	nop
  1005cc:	8d 74 26 00          	lea    0x0(%esi,%eiz,1),%esi
  1005d0:	8d 5a bf             	lea    -0x41(%edx),%ebx
  1005d3:	31 c0                	xor    %eax,%eax
  1005d5:	80 fb 05             	cmp    $0x5,%bl
  1005d8:	0f 87 3b fe ff ff    	ja     100419 <_Z19FrameBufferParseRGBPKc+0x89>
  1005de:	66 0f be c2          	movsbw %dl,%ax
  1005e2:	83 e8 37             	sub    $0x37,%eax
  1005e5:	0f b7 c0             	movzwl %ax,%eax
  1005e8:	c1 e0 04             	shl    $0x4,%eax
  1005eb:	e9 29 fe ff ff       	jmp    100419 <_Z19FrameBufferParseRGBPKc+0x89>
  1005f0:	8d 78 bf             	lea    -0x41(%eax),%edi
  1005f3:	31 db                	xor    %ebx,%ebx
  1005f5:	89 fa                	mov    %edi,%edx
  1005f7:	80 fa 05             	cmp    $0x5,%dl
  1005fa:	0f 87 49 fe ff ff    	ja     100449 <_Z19FrameBufferParseRGBPKc+0xb9>
  100600:	66 0f be d8          	movsbw %al,%bx
  100604:	83 eb 37             	sub    $0x37,%ebx
  100607:	0f b7 db             	movzwl %bx,%ebx
  10060a:	c1 e3 04             	shl    $0x4,%ebx
  10060d:	e9 37 fe ff ff       	jmp    100449 <_Z19FrameBufferParseRGBPKc+0xb9>
  100612:	8d b4 26 00 00 00 00 	lea    0x0(%esi,%eiz,1),%esi
  100619:	8d bc 27 00 00 00 00 	lea    0x0(%edi,%eiz,1),%edi
  100620:	8d 7a bf             	lea    -0x41(%edx),%edi
  100623:	66 0f be da          	movsbw %dl,%bx
  100627:	83 eb 37             	sub    $0x37,%ebx
  10062a:	89 fa                	mov    %edi,%edx
  10062c:	0f b7 db             	movzwl %bx,%ebx
  10062f:	80 fa 05             	cmp    $0x5,%dl
  100632:	ba 00 00 00 00       	mov    $0x0,%edx
  100637:	0f 46 d3             	cmovbe %ebx,%edx
  10063a:	e9 ee fd ff ff       	jmp    10042d <_Z19FrameBufferParseRGBPKc+0x9d>
  10063f:	90                   	nop

00100640 <_Z15FrameBufferPutSPKc>:
  100640:	56                   	push   %esi
  100641:	53                   	push   %ebx
  100642:	e8 35 fb ff ff       	call   10017c <__x86.get_pc_thunk.bx>
  100647:	81 c3 31 84 01 00    	add    $0x18431,%ebx
  10064d:	83 ec 04             	sub    $0x4,%esp
  100650:	8b 74 24 10          	mov    0x10(%esp),%esi
  100654:	0f be 06             	movsbl (%esi),%eax
  100657:	84 c0                	test   %al,%al
  100659:	74 1b                	je     100676 <_Z15FrameBufferPutSPKc+0x36>
  10065b:	90                   	nop
  10065c:	8d 74 26 00          	lea    0x0(%esi,%eiz,1),%esi
  100660:	83 ec 0c             	sub    $0xc,%esp
  100663:	83 c6 01             	add    $0x1,%esi
  100666:	50                   	push   %eax
  100667:	e8 94 fb ff ff       	call   100200 <_Z19FrameBufferDrawCharc>
  10066c:	0f be 06             	movsbl (%esi),%eax
  10066f:	83 c4 10             	add    $0x10,%esp
  100672:	84 c0                	test   %al,%al
  100674:	75 ea                	jne    100660 <_Z15FrameBufferPutSPKc+0x20>
  100676:	83 c4 04             	add    $0x4,%esp
  100679:	5b                   	pop    %ebx
  10067a:	5e                   	pop    %esi
  10067b:	c3                   	ret    
  10067c:	66 90                	xchg   %ax,%ax
  10067e:	66 90                	xchg   %ax,%ax

00100680 <_Z11HwDiscoveryv>:
  100680:	53                   	push   %ebx
  100681:	e8 f6 fa ff ff       	call   10017c <__x86.get_pc_thunk.bx>
  100686:	81 c3 f2 83 01 00    	add    $0x183f2,%ebx
  10068c:	83 ec 08             	sub    $0x8,%esp
  10068f:	e8 9c 15 00 00       	call   101c30 <_Z8Mb1Parsev>
  100694:	e8 f7 18 00 00       	call   101f90 <_Z8Mb2Parsev>
  100699:	e8 52 fa ff ff       	call   1000f0 <_Z7BdaReadv>
  10069e:	83 c4 08             	add    $0x8,%esp
  1006a1:	5b                   	pop    %ebx
  1006a2:	c3                   	ret    
  1006a3:	66 90                	xchg   %ax,%ax
  1006a5:	66 90                	xchg   %ax,%ax
  1006a7:	66 90                	xchg   %ax,%ax
  1006a9:	66 90                	xchg   %ax,%ax
  1006ab:	66 90                	xchg   %ax,%ax
  1006ad:	66 90                	xchg   %ax,%ax
  1006af:	90                   	nop

001006b0 <LoaderMain>:
  1006b0:	56                   	push   %esi
  1006b1:	53                   	push   %ebx
  1006b2:	e8 c5 fa ff ff       	call   10017c <__x86.get_pc_thunk.bx>
  1006b7:	81 c3 c1 83 01 00    	add    $0x183c1,%ebx
  1006bd:	83 ec 04             	sub    $0x4,%esp
  1006c0:	e8 db 12 00 00       	call   1019a0 <_Z10SerialInitv>
  1006c5:	e8 b6 ff ff ff       	call   100680 <_Z11HwDiscoveryv>
  1006ca:	e8 e1 0d 00 00       	call   1014b0 <_Z7PmmInitv>
  1006cf:	e8 7c fc ff ff       	call   100350 <_Z15FrameBufferInitv>
  1006d4:	8d 83 a1 a5 fe ff    	lea    -0x15a5f(%ebx),%eax
  1006da:	83 ec 0c             	sub    $0xc,%esp
  1006dd:	50                   	push   %eax
  1006de:	e8 5d ff ff ff       	call   100640 <_Z15FrameBufferPutSPKc>
  1006e3:	e8 48 03 00 00       	call   100a30 <_Z7MmuInitv>
  1006e8:	e8 c3 08 00 00       	call   100fb0 <_Z10ModuleInitv>
  1006ed:	8d 93 b8 a5 fe ff    	lea    -0x15a48(%ebx),%edx
  1006f3:	89 c6                	mov    %eax,%esi
  1006f5:	89 14 24             	mov    %edx,(%esp)
  1006f8:	e8 43 ff ff ff       	call   100640 <_Z15FrameBufferPutSPKc>
  1006fd:	c7 c2 00 90 11 00    	mov    $0x119000,%edx
  100703:	58                   	pop    %eax
  100704:	ff 32                	pushl  (%edx)
  100706:	e8 85 08 00 00       	call   100f90 <MmuSwitchPageDir>
  10070b:	c7 c2 a0 90 11 00    	mov    $0x1190a0,%edx
  100711:	83 c4 0c             	add    $0xc,%esp
  100714:	8b 12                	mov    (%edx),%edx
  100716:	c7 82 0c 03 00 00 00 	movl   $0xfb000000,0x30c(%edx)
  10071d:	00 00 fb 
  100720:	c6 82 0b 03 00 00 01 	movb   $0x1,0x30b(%edx)
  100727:	68 29 03 00 00       	push   $0x329
  10072c:	52                   	push   %edx
  10072d:	68 00 30 00 00       	push   $0x3000
  100732:	e8 49 14 00 00       	call   101b80 <kMemMove>
  100737:	8d 93 d0 a5 fe ff    	lea    -0x15a30(%ebx),%edx
  10073d:	89 14 24             	mov    %edx,(%esp)
  100740:	e8 eb 13 00 00       	call   101b30 <_Z10SerialPutSPKc>
  100745:	ff d6                	call   *%esi
  100747:	8d 83 e7 a5 fe ff    	lea    -0x15a19(%ebx),%eax
  10074d:	89 04 24             	mov    %eax,(%esp)
  100750:	e8 db 13 00 00       	call   101b30 <_Z10SerialPutSPKc>
  100755:	83 c4 10             	add    $0x10,%esp
  100758:	eb fe                	jmp    100758 <LoaderMain+0xa8>
  10075a:	66 90                	xchg   %ax,%ax
  10075c:	66 90                	xchg   %ax,%ax
  10075e:	66 90                	xchg   %ax,%ax

00100760 <_Z13MmuDumpTablesm>:
  100760:	55                   	push   %ebp
  100761:	57                   	push   %edi
  100762:	56                   	push   %esi
  100763:	53                   	push   %ebx
  100764:	e8 13 fa ff ff       	call   10017c <__x86.get_pc_thunk.bx>
  100769:	81 c3 0f 83 01 00    	add    $0x1830f,%ebx
  10076f:	83 ec 38             	sub    $0x38,%esp
  100772:	8d 83 08 a6 fe ff    	lea    -0x159f8(%ebx),%eax
  100778:	50                   	push   %eax
  100779:	e8 b2 13 00 00       	call   101b30 <_Z10SerialPutSPKc>
  10077e:	5a                   	pop    %edx
  10077f:	ff 74 24 4c          	pushl  0x4c(%esp)
  100783:	e8 28 13 00 00       	call   101ab0 <_Z12SerialPutHexm>
  100788:	8d 83 ee a5 fe ff    	lea    -0x15a12(%ebx),%eax
  10078e:	89 04 24             	mov    %eax,(%esp)
  100791:	e8 9a 13 00 00       	call   101b30 <_Z10SerialPutSPKc>
  100796:	8d 83 40 a6 fe ff    	lea    -0x159c0(%ebx),%eax
  10079c:	89 04 24             	mov    %eax,(%esp)
  10079f:	e8 8c 13 00 00       	call   101b30 <_Z10SerialPutSPKc>
  1007a4:	8d 83 80 a6 fe ff    	lea    -0x15980(%ebx),%eax
  1007aa:	89 04 24             	mov    %eax,(%esp)
  1007ad:	e8 7e 13 00 00       	call   101b30 <_Z10SerialPutSPKc>
  1007b2:	c7 c7 00 90 11 00    	mov    $0x119000,%edi
  1007b8:	8b 74 24 50          	mov    0x50(%esp),%esi
  1007bc:	8d 93 f7 a5 fe ff    	lea    -0x15a09(%ebx),%edx
  1007c2:	8b 07                	mov    (%edi),%eax
  1007c4:	c1 ee 16             	shr    $0x16,%esi
  1007c7:	89 14 24             	mov    %edx,(%esp)
  1007ca:	8d 2c b0             	lea    (%eax,%esi,4),%ebp
  1007cd:	e8 5e 13 00 00       	call   101b30 <_Z10SerialPutSPKc>
  1007d2:	59                   	pop    %ecx
  1007d3:	ff 37                	pushl  (%edi)
  1007d5:	8d bb fa a5 fe ff    	lea    -0x15a06(%ebx),%edi
  1007db:	e8 d0 12 00 00       	call   101ab0 <_Z12SerialPutHexm>
  1007e0:	89 3c 24             	mov    %edi,(%esp)
  1007e3:	e8 48 13 00 00       	call   101b30 <_Z10SerialPutSPKc>
  1007e8:	89 34 24             	mov    %esi,(%esp)
  1007eb:	8d b3 fb a5 fe ff    	lea    -0x15a05(%ebx),%esi
  1007f1:	e8 ba 12 00 00       	call   101ab0 <_Z12SerialPutHexm>
  1007f6:	89 34 24             	mov    %esi,(%esp)
  1007f9:	e8 32 13 00 00       	call   101b30 <_Z10SerialPutSPKc>
  1007fe:	0f b6 4d 01          	movzbl 0x1(%ebp),%ecx
  100802:	0f b6 55 02          	movzbl 0x2(%ebp),%edx
  100806:	c0 e9 04             	shr    $0x4,%cl
  100809:	c1 e2 04             	shl    $0x4,%edx
  10080c:	0f b6 c9             	movzbl %cl,%ecx
  10080f:	09 d1                	or     %edx,%ecx
  100811:	0f b6 55 03          	movzbl 0x3(%ebp),%edx
  100815:	c1 e2 0c             	shl    $0xc,%edx
  100818:	09 ca                	or     %ecx,%edx
  10081a:	89 14 24             	mov    %edx,(%esp)
  10081d:	e8 8e 12 00 00       	call   101ab0 <_Z12SerialPutHexm>
  100822:	8d 83 f9 a5 fe ff    	lea    -0x15a07(%ebx),%eax
  100828:	89 04 24             	mov    %eax,(%esp)
  10082b:	89 44 24 1c          	mov    %eax,0x1c(%esp)
  10082f:	e8 fc 12 00 00       	call   101b30 <_Z10SerialPutSPKc>
  100834:	f6 45 00 04          	testb  $0x4,0x0(%ebp)
  100838:	8d 83 f2 a5 fe ff    	lea    -0x15a0e(%ebx),%eax
  10083e:	8d 8b f0 a5 fe ff    	lea    -0x15a10(%ebx),%ecx
  100844:	89 c2                	mov    %eax,%edx
  100846:	89 44 24 18          	mov    %eax,0x18(%esp)
  10084a:	89 4c 24 14          	mov    %ecx,0x14(%esp)
  10084e:	0f 45 d1             	cmovne %ecx,%edx
  100851:	89 14 24             	mov    %edx,(%esp)
  100854:	e8 d7 12 00 00       	call   101b30 <_Z10SerialPutSPKc>
  100859:	89 3c 24             	mov    %edi,(%esp)
  10085c:	e8 cf 12 00 00       	call   101b30 <_Z10SerialPutSPKc>
  100861:	f6 45 00 02          	testb  $0x2,0x0(%ebp)
  100865:	8b 54 24 18          	mov    0x18(%esp),%edx
  100869:	0f 45 54 24 14       	cmovne 0x14(%esp),%edx
  10086e:	89 14 24             	mov    %edx,(%esp)
  100871:	e8 ba 12 00 00       	call   101b30 <_Z10SerialPutSPKc>
  100876:	89 34 24             	mov    %esi,(%esp)
  100879:	e8 b2 12 00 00       	call   101b30 <_Z10SerialPutSPKc>
  10087e:	f6 45 00 01          	testb  $0x1,0x0(%ebp)
  100882:	8d 83 5a a7 fe ff    	lea    -0x158a6(%ebx),%eax
  100888:	8d 8b f4 a5 fe ff    	lea    -0x15a0c(%ebx),%ecx
  10088e:	89 c2                	mov    %eax,%edx
  100890:	89 44 24 24          	mov    %eax,0x24(%esp)
  100894:	89 4c 24 20          	mov    %ecx,0x20(%esp)
  100898:	0f 45 d1             	cmovne %ecx,%edx
  10089b:	89 14 24             	mov    %edx,(%esp)
  10089e:	e8 8d 12 00 00       	call   101b30 <_Z10SerialPutSPKc>
  1008a3:	83 c4 10             	add    $0x10,%esp
  1008a6:	f6 45 00 01          	testb  $0x1,0x0(%ebp)
  1008aa:	0f 84 d9 00 00 00    	je     100989 <_Z13MmuDumpTablesm+0x229>
  1008b0:	0f b6 4d 01          	movzbl 0x1(%ebp),%ecx
  1008b4:	0f b6 55 02          	movzbl 0x2(%ebp),%edx
  1008b8:	83 ec 0c             	sub    $0xc,%esp
  1008bb:	c0 e9 04             	shr    $0x4,%cl
  1008be:	c1 e2 04             	shl    $0x4,%edx
  1008c1:	0f b6 c9             	movzbl %cl,%ecx
  1008c4:	09 d1                	or     %edx,%ecx
  1008c6:	0f b6 55 03          	movzbl 0x3(%ebp),%edx
  1008ca:	8b 6c 24 4c          	mov    0x4c(%esp),%ebp
  1008ce:	c1 ed 0c             	shr    $0xc,%ebp
  1008d1:	c1 e2 0c             	shl    $0xc,%edx
  1008d4:	89 e8                	mov    %ebp,%eax
  1008d6:	09 ca                	or     %ecx,%edx
  1008d8:	25 ff 03 00 00       	and    $0x3ff,%eax
  1008dd:	8d 8b ff a5 fe ff    	lea    -0x15a01(%ebx),%ecx
  1008e3:	c1 e2 0c             	shl    $0xc,%edx
  1008e6:	89 44 24 24          	mov    %eax,0x24(%esp)
  1008ea:	89 54 24 28          	mov    %edx,0x28(%esp)
  1008ee:	51                   	push   %ecx
  1008ef:	8d 2c 82             	lea    (%edx,%eax,4),%ebp
  1008f2:	e8 39 12 00 00       	call   101b30 <_Z10SerialPutSPKc>
  1008f7:	8b 54 24 2c          	mov    0x2c(%esp),%edx
  1008fb:	89 14 24             	mov    %edx,(%esp)
  1008fe:	e8 ad 11 00 00       	call   101ab0 <_Z12SerialPutHexm>
  100903:	89 3c 24             	mov    %edi,(%esp)
  100906:	e8 25 12 00 00       	call   101b30 <_Z10SerialPutSPKc>
  10090b:	8b 44 24 28          	mov    0x28(%esp),%eax
  10090f:	89 04 24             	mov    %eax,(%esp)
  100912:	e8 99 11 00 00       	call   101ab0 <_Z12SerialPutHexm>
  100917:	89 34 24             	mov    %esi,(%esp)
  10091a:	e8 11 12 00 00       	call   101b30 <_Z10SerialPutSPKc>
  10091f:	8b 45 00             	mov    0x0(%ebp),%eax
  100922:	c1 e8 0c             	shr    $0xc,%eax
  100925:	89 04 24             	mov    %eax,(%esp)
  100928:	e8 83 11 00 00       	call   101ab0 <_Z12SerialPutHexm>
  10092d:	58                   	pop    %eax
  10092e:	ff 74 24 18          	pushl  0x18(%esp)
  100932:	e8 f9 11 00 00       	call   101b30 <_Z10SerialPutSPKc>
  100937:	f6 45 00 04          	testb  $0x4,0x0(%ebp)
  10093b:	8b 44 24 18          	mov    0x18(%esp),%eax
  10093f:	0f 45 44 24 14       	cmovne 0x14(%esp),%eax
  100944:	89 04 24             	mov    %eax,(%esp)
  100947:	e8 e4 11 00 00       	call   101b30 <_Z10SerialPutSPKc>
  10094c:	89 3c 24             	mov    %edi,(%esp)
  10094f:	e8 dc 11 00 00       	call   101b30 <_Z10SerialPutSPKc>
  100954:	f6 45 00 02          	testb  $0x2,0x0(%ebp)
  100958:	8b 44 24 18          	mov    0x18(%esp),%eax
  10095c:	0f 45 44 24 14       	cmovne 0x14(%esp),%eax
  100961:	89 04 24             	mov    %eax,(%esp)
  100964:	e8 c7 11 00 00       	call   101b30 <_Z10SerialPutSPKc>
  100969:	89 34 24             	mov    %esi,(%esp)
  10096c:	e8 bf 11 00 00       	call   101b30 <_Z10SerialPutSPKc>
  100971:	f6 45 00 01          	testb  $0x1,0x0(%ebp)
  100975:	8b 44 24 24          	mov    0x24(%esp),%eax
  100979:	0f 45 44 24 20       	cmovne 0x20(%esp),%eax
  10097e:	89 04 24             	mov    %eax,(%esp)
  100981:	e8 aa 11 00 00       	call   101b30 <_Z10SerialPutSPKc>
  100986:	83 c4 10             	add    $0x10,%esp
  100989:	83 c4 2c             	add    $0x2c,%esp
  10098c:	5b                   	pop    %ebx
  10098d:	5e                   	pop    %esi
  10098e:	5f                   	pop    %edi
  10098f:	5d                   	pop    %ebp
  100990:	c3                   	ret    
  100991:	66 90                	xchg   %ax,%ax
  100993:	66 90                	xchg   %ax,%ax
  100995:	66 90                	xchg   %ax,%ax
  100997:	66 90                	xchg   %ax,%ax
  100999:	66 90                	xchg   %ax,%ax
  10099b:	66 90                	xchg   %ax,%ax
  10099d:	66 90                	xchg   %ax,%ax
  10099f:	90                   	nop

001009a0 <_Z16MmuGetTableEntryP11pageEntry_tmib>:
  1009a0:	57                   	push   %edi
  1009a1:	56                   	push   %esi
  1009a2:	53                   	push   %ebx
  1009a3:	8b 4c 24 18          	mov    0x18(%esp),%ecx
  1009a7:	8b 74 24 14          	mov    0x14(%esp),%esi
  1009ab:	8b 54 24 10          	mov    0x10(%esp),%edx
  1009af:	e8 c8 f7 ff ff       	call   10017c <__x86.get_pc_thunk.bx>
  1009b4:	81 c3 c4 80 01 00    	add    $0x180c4,%ebx
  1009ba:	8b 44 24 1c          	mov    0x1c(%esp),%eax
  1009be:	d3 ee                	shr    %cl,%esi
  1009c0:	81 e6 ff 03 00 00    	and    $0x3ff,%esi
  1009c6:	8d 34 b2             	lea    (%edx,%esi,4),%esi
  1009c9:	f6 06 01             	testb  $0x1,(%esi)
  1009cc:	75 59                	jne    100a27 <_Z16MmuGetTableEntryP11pageEntry_tmib+0x87>
  1009ce:	83 f9 0c             	cmp    $0xc,%ecx
  1009d1:	74 54                	je     100a27 <_Z16MmuGetTableEntryP11pageEntry_tmib+0x87>
  1009d3:	84 c0                	test   %al,%al
  1009d5:	74 50                	je     100a27 <_Z16MmuGetTableEntryP11pageEntry_tmib+0x87>
  1009d7:	8d 83 bd a6 fe ff    	lea    -0x15943(%ebx),%eax
  1009dd:	83 ec 0c             	sub    $0xc,%esp
  1009e0:	50                   	push   %eax
  1009e1:	e8 4a 11 00 00       	call   101b30 <_Z10SerialPutSPKc>
  1009e6:	e8 b5 0e 00 00       	call   1018a0 <_Z11PmmNewFramev>
  1009eb:	83 c4 0c             	add    $0xc,%esp
  1009ee:	89 c7                	mov    %eax,%edi
  1009f0:	c1 e0 0c             	shl    $0xc,%eax
  1009f3:	68 00 10 00 00       	push   $0x1000
  1009f8:	6a 00                	push   $0x0
  1009fa:	50                   	push   %eax
  1009fb:	e8 a0 11 00 00       	call   101ba0 <kMemSetB>
  100a00:	0f b6 46 01          	movzbl 0x1(%esi),%eax
  100a04:	89 fa                	mov    %edi,%edx
  100a06:	80 0e 07             	orb    $0x7,(%esi)
  100a09:	c1 e2 04             	shl    $0x4,%edx
  100a0c:	83 c4 10             	add    $0x10,%esp
  100a0f:	83 e0 0f             	and    $0xf,%eax
  100a12:	09 d0                	or     %edx,%eax
  100a14:	88 46 01             	mov    %al,0x1(%esi)
  100a17:	89 f8                	mov    %edi,%eax
  100a19:	c1 e8 04             	shr    $0x4,%eax
  100a1c:	88 46 02             	mov    %al,0x2(%esi)
  100a1f:	89 f8                	mov    %edi,%eax
  100a21:	c1 e8 0c             	shr    $0xc,%eax
  100a24:	88 46 03             	mov    %al,0x3(%esi)
  100a27:	89 f0                	mov    %esi,%eax
  100a29:	5b                   	pop    %ebx
  100a2a:	5e                   	pop    %esi
  100a2b:	5f                   	pop    %edi
  100a2c:	c3                   	ret    
  100a2d:	66 90                	xchg   %ax,%ax
  100a2f:	90                   	nop

00100a30 <_Z7MmuInitv>:
  100a30:	55                   	push   %ebp
  100a31:	57                   	push   %edi
  100a32:	56                   	push   %esi
  100a33:	53                   	push   %ebx
  100a34:	e8 43 f7 ff ff       	call   10017c <__x86.get_pc_thunk.bx>
  100a39:	81 c3 3f 80 01 00    	add    $0x1803f,%ebx
  100a3f:	83 ec 20             	sub    $0x20,%esp
  100a42:	c7 c6 00 90 11 00    	mov    $0x119000,%esi
  100a48:	68 00 10 00 00       	push   $0x1000
  100a4d:	8d ab ee a5 fe ff    	lea    -0x15a12(%ebx),%ebp
  100a53:	6a 00                	push   $0x0
  100a55:	ff 36                	pushl  (%esi)
  100a57:	e8 44 11 00 00       	call   101ba0 <kMemSetB>
  100a5c:	8b 06                	mov    (%esi),%eax
  100a5e:	89 c2                	mov    %eax,%edx
  100a60:	80 88 fc 0f 00 00 07 	orb    $0x7,0xffc(%eax)
  100a67:	c1 ea 0c             	shr    $0xc,%edx
  100a6a:	89 d7                	mov    %edx,%edi
  100a6c:	0f b6 90 fd 0f 00 00 	movzbl 0xffd(%eax),%edx
  100a73:	c1 e7 04             	shl    $0x4,%edi
  100a76:	83 e2 0f             	and    $0xf,%edx
  100a79:	09 fa                	or     %edi,%edx
  100a7b:	88 90 fd 0f 00 00    	mov    %dl,0xffd(%eax)
  100a81:	89 c2                	mov    %eax,%edx
  100a83:	c1 ea 10             	shr    $0x10,%edx
  100a86:	88 90 fe 0f 00 00    	mov    %dl,0xffe(%eax)
  100a8c:	89 c2                	mov    %eax,%edx
  100a8e:	c1 ea 18             	shr    $0x18,%edx
  100a91:	88 90 ff 0f 00 00    	mov    %dl,0xfff(%eax)
  100a97:	8d 83 d4 a6 fe ff    	lea    -0x1592c(%ebx),%eax
  100a9d:	89 04 24             	mov    %eax,(%esp)
  100aa0:	e8 8b 10 00 00       	call   101b30 <_Z10SerialPutSPKc>
  100aa5:	5f                   	pop    %edi
  100aa6:	c7 c0 a0 90 11 00    	mov    $0x1190a0,%eax
  100aac:	89 44 24 14          	mov    %eax,0x14(%esp)
  100ab0:	89 c7                	mov    %eax,%edi
  100ab2:	8b 00                	mov    (%eax),%eax
  100ab4:	ff 30                	pushl  (%eax)
  100ab6:	e8 f5 0f 00 00       	call   101ab0 <_Z12SerialPutHexm>
  100abb:	89 2c 24             	mov    %ebp,(%esp)
  100abe:	e8 6d 10 00 00       	call   101b30 <_Z10SerialPutSPKc>
  100ac3:	8d 83 db a6 fe ff    	lea    -0x15925(%ebx),%eax
  100ac9:	89 04 24             	mov    %eax,(%esp)
  100acc:	e8 5f 10 00 00       	call   101b30 <_Z10SerialPutSPKc>
  100ad1:	8b 07                	mov    (%edi),%eax
  100ad3:	bf 00 00 0a 00       	mov    $0xa0000,%edi
  100ad8:	8b 00                	mov    (%eax),%eax
  100ada:	c7 04 24 00 00 00 00 	movl   $0x0,(%esp)
  100ae1:	6a 01                	push   $0x1
  100ae3:	89 c2                	mov    %eax,%edx
  100ae5:	c1 ea 0c             	shr    $0xc,%edx
  100ae8:	52                   	push   %edx
  100ae9:	50                   	push   %eax
  100aea:	ff 36                	pushl  (%esi)
  100aec:	e8 1f 03 00 00       	call   100e10 <_Z13MmuMapToFramemmmbb>
  100af1:	8d 83 e9 a6 fe ff    	lea    -0x15917(%ebx),%eax
  100af7:	83 c4 14             	add    $0x14,%esp
  100afa:	50                   	push   %eax
  100afb:	e8 30 10 00 00       	call   101b30 <_Z10SerialPutSPKc>
  100b00:	83 c4 10             	add    $0x10,%esp
  100b03:	8d b6 00 00 00 00    	lea    0x0(%esi),%esi
  100b09:	8d bc 27 00 00 00 00 	lea    0x0(%edi,%eiz,1),%edi
  100b10:	83 ec 0c             	sub    $0xc,%esp
  100b13:	6a 2e                	push   $0x2e
  100b15:	e8 36 0f 00 00       	call   101a50 <_Z13SerialPutCharc>
  100b1a:	89 f8                	mov    %edi,%eax
  100b1c:	c7 04 24 01 00 00 00 	movl   $0x1,(%esp)
  100b23:	6a 01                	push   $0x1
  100b25:	c1 e8 0c             	shr    $0xc,%eax
  100b28:	50                   	push   %eax
  100b29:	57                   	push   %edi
  100b2a:	81 c7 00 10 00 00    	add    $0x1000,%edi
  100b30:	ff 36                	pushl  (%esi)
  100b32:	e8 d9 02 00 00       	call   100e10 <_Z13MmuMapToFramemmmbb>
  100b37:	83 c4 20             	add    $0x20,%esp
  100b3a:	81 ff 00 00 10 00    	cmp    $0x100000,%edi
  100b40:	75 ce                	jne    100b10 <_Z7MmuInitv+0xe0>
  100b42:	8d 83 fa a6 fe ff    	lea    -0x15906(%ebx),%eax
  100b48:	83 ec 0c             	sub    $0xc,%esp
  100b4b:	50                   	push   %eax
  100b4c:	e8 df 0f 00 00       	call   101b30 <_Z10SerialPutSPKc>
  100b51:	c7 04 24 00 00 00 00 	movl   $0x0,(%esp)
  100b58:	6a 01                	push   $0x1
  100b5a:	6a 00                	push   $0x0
  100b5c:	68 00 10 40 ff       	push   $0xff401000
  100b61:	ff 36                	pushl  (%esi)
  100b63:	e8 a8 02 00 00       	call   100e10 <_Z13MmuMapToFramemmmbb>
  100b68:	8d 83 08 a7 fe ff    	lea    -0x158f8(%ebx),%eax
  100b6e:	83 c4 14             	add    $0x14,%esp
  100b71:	50                   	push   %eax
  100b72:	e8 b9 0f 00 00       	call   101b30 <_Z10SerialPutSPKc>
  100b77:	c7 c0 00 00 10 00    	mov    $0x100000,%eax
  100b7d:	89 04 24             	mov    %eax,(%esp)
  100b80:	89 44 24 1c          	mov    %eax,0x1c(%esp)
  100b84:	e8 27 0f 00 00       	call   101ab0 <_Z12SerialPutHexm>
  100b89:	8d 83 17 a7 fe ff    	lea    -0x158e9(%ebx),%eax
  100b8f:	89 04 24             	mov    %eax,(%esp)
  100b92:	e8 99 0f 00 00       	call   101b30 <_Z10SerialPutSPKc>
  100b97:	c7 c7 00 c0 11 00    	mov    $0x11c000,%edi
  100b9d:	89 3c 24             	mov    %edi,(%esp)
  100ba0:	e8 0b 0f 00 00       	call   101ab0 <_Z12SerialPutHexm>
  100ba5:	89 2c 24             	mov    %ebp,(%esp)
  100ba8:	e8 83 0f 00 00       	call   101b30 <_Z10SerialPutSPKc>
  100bad:	8d 83 25 a7 fe ff    	lea    -0x158db(%ebx),%eax
  100bb3:	89 04 24             	mov    %eax,(%esp)
  100bb6:	e8 75 0f 00 00       	call   101b30 <_Z10SerialPutSPKc>
  100bbb:	83 c4 10             	add    $0x10,%esp
  100bbe:	8b 44 24 0c          	mov    0xc(%esp),%eax
  100bc2:	39 f8                	cmp    %edi,%eax
  100bc4:	89 c5                	mov    %eax,%ebp
  100bc6:	73 36                	jae    100bfe <_Z7MmuInitv+0x1ce>
  100bc8:	90                   	nop
  100bc9:	8d b4 26 00 00 00 00 	lea    0x0(%esi,%eiz,1),%esi
  100bd0:	83 ec 0c             	sub    $0xc,%esp
  100bd3:	6a 2e                	push   $0x2e
  100bd5:	e8 76 0e 00 00       	call   101a50 <_Z13SerialPutCharc>
  100bda:	89 e8                	mov    %ebp,%eax
  100bdc:	c7 04 24 00 00 00 00 	movl   $0x0,(%esp)
  100be3:	6a 01                	push   $0x1
  100be5:	c1 e8 0c             	shr    $0xc,%eax
  100be8:	50                   	push   %eax
  100be9:	55                   	push   %ebp
  100bea:	81 c5 00 10 00 00    	add    $0x1000,%ebp
  100bf0:	ff 36                	pushl  (%esi)
  100bf2:	e8 19 02 00 00       	call   100e10 <_Z13MmuMapToFramemmmbb>
  100bf7:	83 c4 20             	add    $0x20,%esp
  100bfa:	39 ef                	cmp    %ebp,%edi
  100bfc:	77 d2                	ja     100bd0 <_Z7MmuInitv+0x1a0>
  100bfe:	8d 83 3d a7 fe ff    	lea    -0x158c3(%ebx),%eax
  100c04:	83 ec 0c             	sub    $0xc,%esp
  100c07:	bd 00 00 00 fb       	mov    $0xfb000000,%ebp
  100c0c:	50                   	push   %eax
  100c0d:	e8 1e 0f 00 00       	call   101b30 <_Z10SerialPutSPKc>
  100c12:	8b 7c 24 18          	mov    0x18(%esp),%edi
  100c16:	8b 17                	mov    (%edi),%edx
  100c18:	8b 82 10 03 00 00    	mov    0x310(%edx),%eax
  100c1e:	0f af 82 18 03 00 00 	imul   0x318(%edx),%eax
  100c25:	03 82 0c 03 00 00    	add    0x30c(%edx),%eax
  100c2b:	c1 e8 0c             	shr    $0xc,%eax
  100c2e:	89 04 24             	mov    %eax,(%esp)
  100c31:	e8 7a 0e 00 00       	call   101ab0 <_Z12SerialPutHexm>
  100c36:	8b 0f                	mov    (%edi),%ecx
  100c38:	83 c4 10             	add    $0x10,%esp
  100c3b:	8b 81 18 03 00 00    	mov    0x318(%ecx),%eax
  100c41:	8b 91 0c 03 00 00    	mov    0x30c(%ecx),%edx
  100c47:	0f af 81 10 03 00 00 	imul   0x310(%ecx),%eax
  100c4e:	89 d7                	mov    %edx,%edi
  100c50:	c1 ef 0c             	shr    $0xc,%edi
  100c53:	01 d0                	add    %edx,%eax
  100c55:	c1 e8 0c             	shr    $0xc,%eax
  100c58:	39 c7                	cmp    %eax,%edi
  100c5a:	73 4c                	jae    100ca8 <_Z7MmuInitv+0x278>
  100c5c:	8d 74 26 00          	lea    0x0(%esi,%eiz,1),%esi
  100c60:	83 ec 0c             	sub    $0xc,%esp
  100c63:	6a 2e                	push   $0x2e
  100c65:	e8 e6 0d 00 00       	call   101a50 <_Z13SerialPutCharc>
  100c6a:	c7 04 24 01 00 00 00 	movl   $0x1,(%esp)
  100c71:	6a 01                	push   $0x1
  100c73:	57                   	push   %edi
  100c74:	55                   	push   %ebp
  100c75:	83 c7 01             	add    $0x1,%edi
  100c78:	ff 36                	pushl  (%esi)
  100c7a:	81 c5 00 10 00 00    	add    $0x1000,%ebp
  100c80:	e8 8b 01 00 00       	call   100e10 <_Z13MmuMapToFramemmmbb>
  100c85:	8b 44 24 28          	mov    0x28(%esp),%eax
  100c89:	83 c4 20             	add    $0x20,%esp
  100c8c:	8b 10                	mov    (%eax),%edx
  100c8e:	8b 82 18 03 00 00    	mov    0x318(%edx),%eax
  100c94:	0f af 82 10 03 00 00 	imul   0x310(%edx),%eax
  100c9b:	03 82 0c 03 00 00    	add    0x30c(%edx),%eax
  100ca1:	c1 e8 0c             	shr    $0xc,%eax
  100ca4:	39 c7                	cmp    %eax,%edi
  100ca6:	72 b8                	jb     100c60 <_Z7MmuInitv+0x230>
  100ca8:	8d 83 4f a7 fe ff    	lea    -0x158b1(%ebx),%eax
  100cae:	83 ec 0c             	sub    $0xc,%esp
  100cb1:	50                   	push   %eax
  100cb2:	e8 79 0e 00 00       	call   101b30 <_Z10SerialPutSPKc>
  100cb7:	c7 04 24 00 00 00 00 	movl   $0x0,(%esp)
  100cbe:	6a 01                	push   $0x1
  100cc0:	6a 00                	push   $0x0
  100cc2:	6a 00                	push   $0x0
  100cc4:	ff 36                	pushl  (%esi)
  100cc6:	e8 45 01 00 00       	call   100e10 <_Z13MmuMapToFramemmmbb>
  100ccb:	8d 83 5d a7 fe ff    	lea    -0x158a3(%ebx),%eax
  100cd1:	83 c4 14             	add    $0x14,%esp
  100cd4:	50                   	push   %eax
  100cd5:	e8 56 0e 00 00       	call   101b30 <_Z10SerialPutSPKc>
  100cda:	c7 04 24 00 00 00 00 	movl   $0x0,(%esp)
  100ce1:	6a 01                	push   $0x1
  100ce3:	68 ff 01 00 00       	push   $0x1ff
  100ce8:	68 00 f0 1f 00       	push   $0x1ff000
  100ced:	ff 36                	pushl  (%esi)
  100cef:	e8 1c 01 00 00       	call   100e10 <_Z13MmuMapToFramemmmbb>
  100cf4:	8d 83 7c a7 fe ff    	lea    -0x15884(%ebx),%eax
  100cfa:	83 c4 14             	add    $0x14,%esp
  100cfd:	50                   	push   %eax
  100cfe:	e8 2d 0e 00 00       	call   101b30 <_Z10SerialPutSPKc>
  100d03:	c7 04 24 00 00 00 00 	movl   $0x0,(%esp)
  100d0a:	6a 01                	push   $0x1
  100d0c:	6a 03                	push   $0x3
  100d0e:	68 00 30 00 00       	push   $0x3000
  100d13:	ff 36                	pushl  (%esi)
  100d15:	e8 f6 00 00 00       	call   100e10 <_Z13MmuMapToFramemmmbb>
  100d1a:	83 c4 20             	add    $0x20,%esp
  100d1d:	6a 01                	push   $0x1
  100d1f:	6a 16                	push   $0x16
  100d21:	68 00 00 00 d0       	push   $0xd0000000
  100d26:	ff 36                	pushl  (%esi)
  100d28:	e8 73 fc ff ff       	call   1009a0 <_Z16MmuGetTableEntryP11pageEntry_tmib>
  100d2d:	8d 83 68 a7 fe ff    	lea    -0x15898(%ebx),%eax
  100d33:	89 04 24             	mov    %eax,(%esp)
  100d36:	e8 f5 0d 00 00       	call   101b30 <_Z10SerialPutSPKc>
  100d3b:	c7 04 24 00 f0 ff ff 	movl   $0xfffff000,(%esp)
  100d42:	e8 19 fa ff ff       	call   100760 <_Z13MmuDumpTablesm>
  100d47:	c7 04 24 00 00 0a 00 	movl   $0xa0000,(%esp)
  100d4e:	e8 0d fa ff ff       	call   100760 <_Z13MmuDumpTablesm>
  100d53:	c7 04 24 00 10 40 ff 	movl   $0xff401000,(%esp)
  100d5a:	e8 01 fa ff ff       	call   100760 <_Z13MmuDumpTablesm>
  100d5f:	58                   	pop    %eax
  100d60:	ff 74 24 18          	pushl  0x18(%esp)
  100d64:	e8 f7 f9 ff ff       	call   100760 <_Z13MmuDumpTablesm>
  100d69:	c7 04 24 48 29 17 28 	movl   $0x28172948,(%esp)
  100d70:	e8 eb f9 ff ff       	call   100760 <_Z13MmuDumpTablesm>
  100d75:	c7 04 24 00 00 00 fb 	movl   $0xfb000000,(%esp)
  100d7c:	e8 df f9 ff ff       	call   100760 <_Z13MmuDumpTablesm>
  100d81:	c7 04 24 00 00 01 fd 	movl   $0xfd010000,(%esp)
  100d88:	e8 d3 f9 ff ff       	call   100760 <_Z13MmuDumpTablesm>
  100d8d:	5a                   	pop    %edx
  100d8e:	ff b3 fc ff ff ff    	pushl  -0x4(%ebx)
  100d94:	e8 c7 f9 ff ff       	call   100760 <_Z13MmuDumpTablesm>
  100d99:	59                   	pop    %ecx
  100d9a:	ff b3 f8 ff ff ff    	pushl  -0x8(%ebx)
  100da0:	e8 bb f9 ff ff       	call   100760 <_Z13MmuDumpTablesm>
  100da5:	83 c4 10             	add    $0x10,%esp
  100da8:	83 c4 1c             	add    $0x1c,%esp
  100dab:	5b                   	pop    %ebx
  100dac:	5e                   	pop    %esi
  100dad:	5f                   	pop    %edi
  100dae:	5d                   	pop    %ebp
  100daf:	c3                   	ret    

00100db0 <_Z15MmuMakeNewTableP11pageEntry_t>:
  100db0:	57                   	push   %edi
  100db1:	56                   	push   %esi
  100db2:	53                   	push   %ebx
  100db3:	8b 7c 24 10          	mov    0x10(%esp),%edi
  100db7:	e8 c0 f3 ff ff       	call   10017c <__x86.get_pc_thunk.bx>
  100dbc:	81 c3 bc 7c 01 00    	add    $0x17cbc,%ebx
  100dc2:	e8 d9 0a 00 00       	call   1018a0 <_Z11PmmNewFramev>
  100dc7:	83 ec 04             	sub    $0x4,%esp
  100dca:	89 c6                	mov    %eax,%esi
  100dcc:	c1 e0 0c             	shl    $0xc,%eax
  100dcf:	68 00 10 00 00       	push   $0x1000
  100dd4:	6a 00                	push   $0x0
  100dd6:	50                   	push   %eax
  100dd7:	e8 c4 0d 00 00       	call   101ba0 <kMemSetB>
  100ddc:	0f b6 47 01          	movzbl 0x1(%edi),%eax
  100de0:	89 f2                	mov    %esi,%edx
  100de2:	83 c4 10             	add    $0x10,%esp
  100de5:	c1 e2 04             	shl    $0x4,%edx
  100de8:	83 e0 0f             	and    $0xf,%eax
  100deb:	09 d0                	or     %edx,%eax
  100ded:	88 47 01             	mov    %al,0x1(%edi)
  100df0:	89 f0                	mov    %esi,%eax
  100df2:	c1 e8 04             	shr    $0x4,%eax
  100df5:	88 47 02             	mov    %al,0x2(%edi)
  100df8:	89 f0                	mov    %esi,%eax
  100dfa:	c1 e8 0c             	shr    $0xc,%eax
  100dfd:	88 47 03             	mov    %al,0x3(%edi)
  100e00:	89 f8                	mov    %edi,%eax
  100e02:	5b                   	pop    %ebx
  100e03:	5e                   	pop    %esi
  100e04:	5f                   	pop    %edi
  100e05:	c3                   	ret    
  100e06:	66 90                	xchg   %ax,%ax
  100e08:	66 90                	xchg   %ax,%ax
  100e0a:	66 90                	xchg   %ax,%ax
  100e0c:	66 90                	xchg   %ax,%ax
  100e0e:	66 90                	xchg   %ax,%ax

00100e10 <_Z13MmuMapToFramemmmbb>:
  100e10:	55                   	push   %ebp
  100e11:	57                   	push   %edi
  100e12:	56                   	push   %esi
  100e13:	53                   	push   %ebx
  100e14:	e8 63 f3 ff ff       	call   10017c <__x86.get_pc_thunk.bx>
  100e19:	81 c3 5f 7c 01 00    	add    $0x17c5f,%ebx
  100e1f:	83 ec 1c             	sub    $0x1c,%esp
  100e22:	8b 44 24 40          	mov    0x40(%esp),%eax
  100e26:	8b 74 24 38          	mov    0x38(%esp),%esi
  100e2a:	8b 7c 24 3c          	mov    0x3c(%esp),%edi
  100e2e:	89 44 24 0c          	mov    %eax,0xc(%esp)
  100e32:	c7 c0 a0 90 11 00    	mov    $0x1190a0,%eax
  100e38:	89 f5                	mov    %esi,%ebp
  100e3a:	c1 ed 05             	shr    $0x5,%ebp
  100e3d:	89 f1                	mov    %esi,%ecx
  100e3f:	8b 00                	mov    (%eax),%eax
  100e41:	8b 90 03 03 00 00    	mov    0x303(%eax),%edx
  100e47:	b8 01 00 00 00       	mov    $0x1,%eax
  100e4c:	d3 e0                	shl    %cl,%eax
  100e4e:	85 04 aa             	test   %eax,(%edx,%ebp,4)
  100e51:	0f 85 99 00 00 00    	jne    100ef0 <_Z13MmuMapToFramemmmbb+0xe0>
  100e57:	6a 01                	push   $0x1
  100e59:	6a 16                	push   $0x16
  100e5b:	ff 74 24 3c          	pushl  0x3c(%esp)
  100e5f:	ff 74 24 3c          	pushl  0x3c(%esp)
  100e63:	e8 38 fb ff ff       	call   1009a0 <_Z16MmuGetTableEntryP11pageEntry_tmib>
  100e68:	6a 01                	push   $0x1
  100e6a:	6a 0c                	push   $0xc
  100e6c:	ff 74 24 4c          	pushl  0x4c(%esp)
  100e70:	0f b6 48 01          	movzbl 0x1(%eax),%ecx
  100e74:	0f b6 50 02          	movzbl 0x2(%eax),%edx
  100e78:	c0 e9 04             	shr    $0x4,%cl
  100e7b:	c1 e2 04             	shl    $0x4,%edx
  100e7e:	0f b6 c9             	movzbl %cl,%ecx
  100e81:	09 d1                	or     %edx,%ecx
  100e83:	0f b6 50 03          	movzbl 0x3(%eax),%edx
  100e87:	c1 e2 0c             	shl    $0xc,%edx
  100e8a:	09 ca                	or     %ecx,%edx
  100e8c:	c1 e2 0c             	shl    $0xc,%edx
  100e8f:	52                   	push   %edx
  100e90:	e8 0b fb ff ff       	call   1009a0 <_Z16MmuGetTableEntryP11pageEntry_tmib>
  100e95:	0f b6 10             	movzbl (%eax),%edx
  100e98:	83 c4 20             	add    $0x20,%esp
  100e9b:	f6 c2 01             	test   $0x1,%dl
  100e9e:	0f 85 7c 00 00 00    	jne    100f20 <_Z13MmuMapToFramemmmbb+0x110>
  100ea4:	89 f1                	mov    %esi,%ecx
  100ea6:	89 f5                	mov    %esi,%ebp
  100ea8:	c1 ee 0c             	shr    $0xc,%esi
  100eab:	c1 e9 04             	shr    $0x4,%ecx
  100eae:	0f b6 58 01          	movzbl 0x1(%eax),%ebx
  100eb2:	83 e7 01             	and    $0x1,%edi
  100eb5:	88 48 02             	mov    %cl,0x2(%eax)
  100eb8:	89 f1                	mov    %esi,%ecx
  100eba:	c1 e5 04             	shl    $0x4,%ebp
  100ebd:	88 48 03             	mov    %cl,0x3(%eax)
  100ec0:	0f b6 4c 24 0c       	movzbl 0xc(%esp),%ecx
  100ec5:	01 ff                	add    %edi,%edi
  100ec7:	83 e2 fd             	and    $0xfffffffd,%edx
  100eca:	83 e3 0d             	and    $0xd,%ebx
  100ecd:	09 fa                	or     %edi,%edx
  100ecf:	09 eb                	or     %ebp,%ebx
  100ed1:	83 ca 05             	or     $0x5,%edx
  100ed4:	83 e1 01             	and    $0x1,%ecx
  100ed7:	88 10                	mov    %dl,(%eax)
  100ed9:	01 c9                	add    %ecx,%ecx
  100edb:	09 d9                	or     %ebx,%ecx
  100edd:	88 48 01             	mov    %cl,0x1(%eax)
  100ee0:	83 c4 1c             	add    $0x1c,%esp
  100ee3:	5b                   	pop    %ebx
  100ee4:	5e                   	pop    %esi
  100ee5:	5f                   	pop    %edi
  100ee6:	5d                   	pop    %ebp
  100ee7:	c3                   	ret    
  100ee8:	90                   	nop
  100ee9:	8d b4 26 00 00 00 00 	lea    0x0(%esi,%eiz,1),%esi
  100ef0:	8d 83 9d a7 fe ff    	lea    -0x15863(%ebx),%eax
  100ef6:	83 ec 0c             	sub    $0xc,%esp
  100ef9:	50                   	push   %eax
  100efa:	e8 31 0c 00 00       	call   101b30 <_Z10SerialPutSPKc>
  100eff:	89 34 24             	mov    %esi,(%esp)
  100f02:	e8 a9 0b 00 00       	call   101ab0 <_Z12SerialPutHexm>
  100f07:	8d 83 a9 a7 fe ff    	lea    -0x15857(%ebx),%eax
  100f0d:	89 04 24             	mov    %eax,(%esp)
  100f10:	e8 1b 0c 00 00       	call   101b30 <_Z10SerialPutSPKc>
  100f15:	83 c4 10             	add    $0x10,%esp
  100f18:	83 c4 1c             	add    $0x1c,%esp
  100f1b:	5b                   	pop    %ebx
  100f1c:	5e                   	pop    %esi
  100f1d:	5f                   	pop    %edi
  100f1e:	5d                   	pop    %ebp
  100f1f:	c3                   	ret    
  100f20:	8d 93 bc a7 fe ff    	lea    -0x15844(%ebx),%edx
  100f26:	89 44 24 0c          	mov    %eax,0xc(%esp)
  100f2a:	83 ec 0c             	sub    $0xc,%esp
  100f2d:	52                   	push   %edx
  100f2e:	e8 fd 0b 00 00       	call   101b30 <_Z10SerialPutSPKc>
  100f33:	58                   	pop    %eax
  100f34:	ff 74 24 40          	pushl  0x40(%esp)
  100f38:	e8 73 0b 00 00       	call   101ab0 <_Z12SerialPutHexm>
  100f3d:	8d 93 ca a7 fe ff    	lea    -0x15836(%ebx),%edx
  100f43:	89 14 24             	mov    %edx,(%esp)
  100f46:	e8 e5 0b 00 00       	call   101b30 <_Z10SerialPutSPKc>
  100f4b:	8b 44 24 1c          	mov    0x1c(%esp),%eax
  100f4f:	0f b6 48 01          	movzbl 0x1(%eax),%ecx
  100f53:	0f b6 50 02          	movzbl 0x2(%eax),%edx
  100f57:	0f b6 40 03          	movzbl 0x3(%eax),%eax
  100f5b:	c0 e9 04             	shr    $0x4,%cl
  100f5e:	c1 e2 04             	shl    $0x4,%edx
  100f61:	0f b6 c9             	movzbl %cl,%ecx
  100f64:	c1 e0 0c             	shl    $0xc,%eax
  100f67:	09 ca                	or     %ecx,%edx
  100f69:	09 d0                	or     %edx,%eax
  100f6b:	89 04 24             	mov    %eax,(%esp)
  100f6e:	e8 3d 0b 00 00       	call   101ab0 <_Z12SerialPutHexm>
  100f73:	8d 83 ee a5 fe ff    	lea    -0x15a12(%ebx),%eax
  100f79:	89 04 24             	mov    %eax,(%esp)
  100f7c:	e8 af 0b 00 00       	call   101b30 <_Z10SerialPutSPKc>
  100f81:	83 c4 10             	add    $0x10,%esp
  100f84:	83 c4 1c             	add    $0x1c,%esp
  100f87:	5b                   	pop    %ebx
  100f88:	5e                   	pop    %esi
  100f89:	5f                   	pop    %edi
  100f8a:	5d                   	pop    %ebp
  100f8b:	c3                   	ret    
  100f8c:	66 90                	xchg   %ax,%ax
  100f8e:	66 90                	xchg   %ax,%ax

00100f90 <MmuSwitchPageDir>:
  100f90:	8b 44 24 04          	mov    0x4(%esp),%eax
  100f94:	0f 22 d8             	mov    %eax,%cr3
  100f97:	0f 20 c0             	mov    %cr0,%eax
  100f9a:	0d 00 00 00 80       	or     $0x80000000,%eax
  100f9f:	0f 22 c0             	mov    %eax,%cr0
  100fa2:	c3                   	ret    
  100fa3:	66 90                	xchg   %ax,%ax
  100fa5:	66 90                	xchg   %ax,%ax
  100fa7:	66 90                	xchg   %ax,%ax
  100fa9:	66 90                	xchg   %ax,%ax
  100fab:	66 90                	xchg   %ax,%ax
  100fad:	66 90                	xchg   %ax,%ax
  100faf:	90                   	nop

00100fb0 <_Z10ModuleInitv>:
  100fb0:	55                   	push   %ebp
  100fb1:	57                   	push   %edi
  100fb2:	56                   	push   %esi
  100fb3:	53                   	push   %ebx
  100fb4:	e8 c3 f1 ff ff       	call   10017c <__x86.get_pc_thunk.bx>
  100fb9:	81 c3 bf 7a 01 00    	add    $0x17abf,%ebx
  100fbf:	83 ec 7c             	sub    $0x7c,%esp
  100fc2:	c7 c5 a0 90 11 00    	mov    $0x1190a0,%ebp
  100fc8:	8b 45 00             	mov    0x0(%ebp),%eax
  100fcb:	0f b6 88 ba 01 00 00 	movzbl 0x1ba(%eax),%ecx
  100fd2:	84 c9                	test   %cl,%cl
  100fd4:	88 4c 24 4b          	mov    %cl,0x4b(%esp)
  100fd8:	0f 84 b0 04 00 00    	je     10148e <_Z10ModuleInitv+0x4de>
  100fde:	8b 80 bb 01 00 00    	mov    0x1bb(%eax),%eax
  100fe4:	85 c0                	test   %eax,%eax
  100fe6:	0f 8e a2 04 00 00    	jle    10148e <_Z10ModuleInitv+0x4de>
  100fec:	8d 83 7f a8 fe ff    	lea    -0x15781(%ebx),%eax
  100ff2:	c7 44 24 10 00 00 00 	movl   $0x0,0x10(%esp)
  100ff9:	00 
  100ffa:	c7 44 24 0c 00 00 00 	movl   $0x0,0xc(%esp)
  101001:	00 
  101002:	c6 44 24 4a 00       	movb   $0x0,0x4a(%esp)
  101007:	c7 44 24 30 00 00 00 	movl   $0x0,0x30(%esp)
  10100e:	00 
  10100f:	89 44 24 18          	mov    %eax,0x18(%esp)
  101013:	8d 83 96 a8 fe ff    	lea    -0x1576a(%ebx),%eax
  101019:	89 44 24 1c          	mov    %eax,0x1c(%esp)
  10101d:	8d 83 ee a5 fe ff    	lea    -0x15a12(%ebx),%eax
  101023:	89 44 24 14          	mov    %eax,0x14(%esp)
  101027:	c7 c0 00 90 11 00    	mov    $0x119000,%eax
  10102d:	89 44 24 50          	mov    %eax,0x50(%esp)
  101031:	8d 83 ad a8 fe ff    	lea    -0x15753(%ebx),%eax
  101037:	89 44 24 20          	mov    %eax,0x20(%esp)
  10103b:	eb 70                	jmp    1010ad <_Z10ModuleInitv+0xfd>
  10103d:	8d 76 00             	lea    0x0(%esi),%esi
  101040:	e8 5b 08 00 00       	call   1018a0 <_Z11PmmNewFramev>
  101045:	83 ec 04             	sub    $0x4,%esp
  101048:	c1 e0 0c             	shl    $0xc,%eax
  10104b:	68 00 10 00 00       	push   $0x1000
  101050:	6a 00                	push   $0x0
  101052:	89 c7                	mov    %eax,%edi
  101054:	50                   	push   %eax
  101055:	e8 46 0b 00 00       	call   101ba0 <kMemSetB>
  10105a:	8b 44 24 1c          	mov    0x1c(%esp),%eax
  10105e:	83 c4 10             	add    $0x10,%esp
  101061:	c1 e0 05             	shl    $0x5,%eax
  101064:	03 45 00             	add    0x0(%ebp),%eax
  101067:	c6 44 24 24 00       	movb   $0x0,0x24(%esp)
  10106c:	89 b8 cb 01 00 00    	mov    %edi,0x1cb(%eax)
  101072:	80 3e 7f             	cmpb   $0x7f,(%esi)
  101075:	75 0a                	jne    101081 <_Z10ModuleInitv+0xd1>
  101077:	80 7e 01 45          	cmpb   $0x45,0x1(%esi)
  10107b:	0f 84 df 00 00 00    	je     101160 <_Z10ModuleInitv+0x1b0>
  101081:	83 ec 0c             	sub    $0xc,%esp
  101084:	ff 74 24 2c          	pushl  0x2c(%esp)
  101088:	e8 a3 0a 00 00       	call   101b30 <_Z10SerialPutSPKc>
  10108d:	8b 45 00             	mov    0x0(%ebp),%eax
  101090:	83 c4 10             	add    $0x10,%esp
  101093:	83 44 24 0c 01       	addl   $0x1,0xc(%esp)
  101098:	83 44 24 10 20       	addl   $0x20,0x10(%esp)
  10109d:	8b 4c 24 0c          	mov    0xc(%esp),%ecx
  1010a1:	39 88 bb 01 00 00    	cmp    %ecx,0x1bb(%eax)
  1010a7:	0f 8e f3 00 00 00    	jle    1011a0 <_Z10ModuleInitv+0x1f0>
  1010ad:	83 ec 0c             	sub    $0xc,%esp
  1010b0:	ff 74 24 24          	pushl  0x24(%esp)
  1010b4:	e8 77 0a 00 00       	call   101b30 <_Z10SerialPutSPKc>
  1010b9:	8b 54 24 20          	mov    0x20(%esp),%edx
  1010bd:	8b 45 00             	mov    0x0(%ebp),%eax
  1010c0:	8d bc 10 d3 01 00 00 	lea    0x1d3(%eax,%edx,1),%edi
  1010c7:	89 3c 24             	mov    %edi,(%esp)
  1010ca:	e8 61 0a 00 00       	call   101b30 <_Z10SerialPutSPKc>
  1010cf:	59                   	pop    %ecx
  1010d0:	ff 74 24 28          	pushl  0x28(%esp)
  1010d4:	e8 57 0a 00 00       	call   101b30 <_Z10SerialPutSPKc>
  1010d9:	5e                   	pop    %esi
  1010da:	8b 74 24 18          	mov    0x18(%esp),%esi
  1010de:	8b 45 00             	mov    0x0(%ebp),%eax
  1010e1:	c1 e6 05             	shl    $0x5,%esi
  1010e4:	01 f0                	add    %esi,%eax
  1010e6:	ff b0 bf 01 00 00    	pushl  0x1bf(%eax)
  1010ec:	e8 bf 09 00 00       	call   101ab0 <_Z12SerialPutHexm>
  1010f1:	58                   	pop    %eax
  1010f2:	ff 74 24 20          	pushl  0x20(%esp)
  1010f6:	e8 35 0a 00 00       	call   101b30 <_Z10SerialPutSPKc>
  1010fb:	03 75 00             	add    0x0(%ebp),%esi
  1010fe:	83 c4 10             	add    $0x10,%esp
  101101:	80 3f 6b             	cmpb   $0x6b,(%edi)
  101104:	8b b6 bf 01 00 00    	mov    0x1bf(%esi),%esi
  10110a:	0f 85 30 ff ff ff    	jne    101040 <_Z10ModuleInitv+0x90>
  101110:	80 7f 01 65          	cmpb   $0x65,0x1(%edi)
  101114:	0f 85 26 ff ff ff    	jne    101040 <_Z10ModuleInitv+0x90>
  10111a:	80 7f 02 72          	cmpb   $0x72,0x2(%edi)
  10111e:	0f 85 1c ff ff ff    	jne    101040 <_Z10ModuleInitv+0x90>
  101124:	80 7f 03 6e          	cmpb   $0x6e,0x3(%edi)
  101128:	0f 85 12 ff ff ff    	jne    101040 <_Z10ModuleInitv+0x90>
  10112e:	80 7f 04 65          	cmpb   $0x65,0x4(%edi)
  101132:	0f 85 08 ff ff ff    	jne    101040 <_Z10ModuleInitv+0x90>
  101138:	80 7f 05 6c          	cmpb   $0x6c,0x5(%edi)
  10113c:	0f 85 fe fe ff ff    	jne    101040 <_Z10ModuleInitv+0x90>
  101142:	8b 44 24 50          	mov    0x50(%esp),%eax
  101146:	8b 38                	mov    (%eax),%edi
  101148:	0f b6 44 24 4b       	movzbl 0x4b(%esp),%eax
  10114d:	88 44 24 24          	mov    %al,0x24(%esp)
  101151:	88 44 24 4a          	mov    %al,0x4a(%esp)
  101155:	e9 18 ff ff ff       	jmp    101072 <_Z10ModuleInitv+0xc2>
  10115a:	8d b6 00 00 00 00    	lea    0x0(%esi),%esi
  101160:	80 7e 02 4c          	cmpb   $0x4c,0x2(%esi)
  101164:	0f 85 17 ff ff ff    	jne    101081 <_Z10ModuleInitv+0xd1>
  10116a:	80 7e 03 46          	cmpb   $0x46,0x3(%esi)
  10116e:	0f 85 0d ff ff ff    	jne    101081 <_Z10ModuleInitv+0xd1>
  101174:	80 7e 04 01          	cmpb   $0x1,0x4(%esi)
  101178:	74 63                	je     1011dd <_Z10ModuleInitv+0x22d>
  10117a:	8d 83 c4 a8 fe ff    	lea    -0x1573c(%ebx),%eax
  101180:	83 ec 0c             	sub    $0xc,%esp
  101183:	50                   	push   %eax
  101184:	e8 a7 09 00 00       	call   101b30 <_Z10SerialPutSPKc>
  101189:	8b 45 00             	mov    0x0(%ebp),%eax
  10118c:	83 c4 10             	add    $0x10,%esp
  10118f:	e9 ff fe ff ff       	jmp    101093 <_Z10ModuleInitv+0xe3>
  101194:	8d b6 00 00 00 00    	lea    0x0(%esi),%esi
  10119a:	8d bf 00 00 00 00    	lea    0x0(%edi),%edi
  1011a0:	80 7c 24 4a 00       	cmpb   $0x0,0x4a(%esp)
  1011a5:	0f 84 e3 02 00 00    	je     10148e <_Z10ModuleInitv+0x4de>
  1011ab:	8d 83 60 a8 fe ff    	lea    -0x157a0(%ebx),%eax
  1011b1:	83 ec 0c             	sub    $0xc,%esp
  1011b4:	50                   	push   %eax
  1011b5:	e8 76 09 00 00       	call   101b30 <_Z10SerialPutSPKc>
  1011ba:	8b 7c 24 40          	mov    0x40(%esp),%edi
  1011be:	89 3c 24             	mov    %edi,(%esp)
  1011c1:	e8 ea 08 00 00       	call   101ab0 <_Z12SerialPutHexm>
  1011c6:	58                   	pop    %eax
  1011c7:	ff 74 24 20          	pushl  0x20(%esp)
  1011cb:	e8 60 09 00 00       	call   101b30 <_Z10SerialPutSPKc>
  1011d0:	81 c4 8c 00 00 00    	add    $0x8c,%esp
  1011d6:	89 f8                	mov    %edi,%eax
  1011d8:	5b                   	pop    %ebx
  1011d9:	5e                   	pop    %esi
  1011da:	5f                   	pop    %edi
  1011db:	5d                   	pop    %ebp
  1011dc:	c3                   	ret    
  1011dd:	80 7e 05 01          	cmpb   $0x1,0x5(%esi)
  1011e1:	74 1a                	je     1011fd <_Z10ModuleInitv+0x24d>
  1011e3:	8d 83 10 a8 fe ff    	lea    -0x157f0(%ebx),%eax
  1011e9:	83 ec 0c             	sub    $0xc,%esp
  1011ec:	50                   	push   %eax
  1011ed:	e8 3e 09 00 00       	call   101b30 <_Z10SerialPutSPKc>
  1011f2:	8b 45 00             	mov    0x0(%ebp),%eax
  1011f5:	83 c4 10             	add    $0x10,%esp
  1011f8:	e9 96 fe ff ff       	jmp    101093 <_Z10ModuleInitv+0xe3>
  1011fd:	66 83 7e 10 02       	cmpw   $0x2,0x10(%esi)
  101202:	74 1a                	je     10121e <_Z10ModuleInitv+0x26e>
  101204:	8d 83 3c a8 fe ff    	lea    -0x157c4(%ebx),%eax
  10120a:	83 ec 0c             	sub    $0xc,%esp
  10120d:	50                   	push   %eax
  10120e:	e8 1d 09 00 00       	call   101b30 <_Z10SerialPutSPKc>
  101213:	8b 45 00             	mov    0x0(%ebp),%eax
  101216:	83 c4 10             	add    $0x10,%esp
  101219:	e9 75 fe ff ff       	jmp    101093 <_Z10ModuleInitv+0xe3>
  10121e:	8b 4c 24 0c          	mov    0xc(%esp),%ecx
  101222:	8b 46 1c             	mov    0x1c(%esi),%eax
  101225:	8b 56 18             	mov    0x18(%esi),%edx
  101228:	83 c1 0e             	add    $0xe,%ecx
  10122b:	01 f0                	add    %esi,%eax
  10122d:	c1 e1 05             	shl    $0x5,%ecx
  101230:	66 83 7e 2c 00       	cmpw   $0x0,0x2c(%esi)
  101235:	89 44 24 6c          	mov    %eax,0x6c(%esp)
  101239:	8b 45 00             	mov    0x0(%ebp),%eax
  10123c:	89 54 08 0f          	mov    %edx,0xf(%eax,%ecx,1)
  101240:	0f 84 3a 02 00 00    	je     101480 <_Z10ModuleInitv+0x4d0>
  101246:	8b 4c 24 6c          	mov    0x6c(%esp),%ecx
  10124a:	8b 44 24 10          	mov    0x10(%esp),%eax
  10124e:	c7 44 24 54 00 00 00 	movl   $0x0,0x54(%esp)
  101255:	00 
  101256:	89 7c 24 44          	mov    %edi,0x44(%esp)
  10125a:	89 74 24 5c          	mov    %esi,0x5c(%esp)
  10125e:	01 c8                	add    %ecx,%eax
  101260:	89 44 24 34          	mov    %eax,0x34(%esp)
  101264:	89 c8                	mov    %ecx,%eax
  101266:	83 c0 04             	add    $0x4,%eax
  101269:	89 44 24 58          	mov    %eax,0x58(%esp)
  10126d:	8d 83 da a8 fe ff    	lea    -0x15726(%ebx),%eax
  101273:	89 44 24 64          	mov    %eax,0x64(%esp)
  101277:	8d 83 e9 a8 fe ff    	lea    -0x15717(%ebx),%eax
  10127d:	89 44 24 68          	mov    %eax,0x68(%esp)
  101281:	8d 83 f6 a8 fe ff    	lea    -0x1570a(%ebx),%eax
  101287:	89 44 24 60          	mov    %eax,0x60(%esp)
  10128b:	8b 44 24 0c          	mov    0xc(%esp),%eax
  10128f:	c1 e0 05             	shl    $0x5,%eax
  101292:	89 44 24 4c          	mov    %eax,0x4c(%esp)
  101296:	8d 76 00             	lea    0x0(%esi),%esi
  101299:	8d bc 27 00 00 00 00 	lea    0x0(%edi,%eiz,1),%edi
  1012a0:	83 ec 0c             	sub    $0xc,%esp
  1012a3:	ff 74 24 70          	pushl  0x70(%esp)
  1012a7:	e8 84 08 00 00       	call   101b30 <_Z10SerialPutSPKc>
  1012ac:	58                   	pop    %eax
  1012ad:	8b 7c 24 64          	mov    0x64(%esp),%edi
  1012b1:	ff 77 0c             	pushl  0xc(%edi)
  1012b4:	e8 f7 07 00 00       	call   101ab0 <_Z12SerialPutHexm>
  1012b9:	58                   	pop    %eax
  1012ba:	ff 74 24 74          	pushl  0x74(%esp)
  1012be:	e8 6d 08 00 00       	call   101b30 <_Z10SerialPutSPKc>
  1012c3:	5a                   	pop    %edx
  1012c4:	ff 77 10             	pushl  0x10(%edi)
  1012c7:	e8 e4 07 00 00       	call   101ab0 <_Z12SerialPutHexm>
  1012cc:	59                   	pop    %ecx
  1012cd:	ff 74 24 6c          	pushl  0x6c(%esp)
  1012d1:	e8 5a 08 00 00       	call   101b30 <_Z10SerialPutSPKc>
  1012d6:	5e                   	pop    %esi
  1012d7:	ff 37                	pushl  (%edi)
  1012d9:	e8 d2 07 00 00       	call   101ab0 <_Z12SerialPutHexm>
  1012de:	5f                   	pop    %edi
  1012df:	ff 74 24 20          	pushl  0x20(%esp)
  1012e3:	e8 48 08 00 00       	call   101b30 <_Z10SerialPutSPKc>
  1012e8:	83 c4 10             	add    $0x10,%esp
  1012eb:	80 7c 24 24 00       	cmpb   $0x0,0x24(%esp)
  1012f0:	74 0b                	je     1012fd <_Z10ModuleInitv+0x34d>
  1012f2:	8b 44 24 5c          	mov    0x5c(%esp),%eax
  1012f6:	8b 40 18             	mov    0x18(%eax),%eax
  1012f9:	89 44 24 30          	mov    %eax,0x30(%esp)
  1012fd:	8b 44 24 54          	mov    0x54(%esp),%eax
  101301:	85 c0                	test   %eax,%eax
  101303:	75 14                	jne    101319 <_Z10ModuleInitv+0x369>
  101305:	8b 54 24 6c          	mov    0x6c(%esp),%edx
  101309:	8b 44 24 4c          	mov    0x4c(%esp),%eax
  10130d:	03 45 00             	add    0x0(%ebp),%eax
  101310:	8b 52 04             	mov    0x4(%edx),%edx
  101313:	89 90 c7 01 00 00    	mov    %edx,0x1c7(%eax)
  101319:	8b 44 24 58          	mov    0x58(%esp),%eax
  10131d:	8b 40 10             	mov    0x10(%eax),%eax
  101320:	85 c0                	test   %eax,%eax
  101322:	0f 84 e8 00 00 00    	je     101410 <_Z10ModuleInitv+0x460>
  101328:	0f b6 44 24 24       	movzbl 0x24(%esp),%eax
  10132d:	31 ff                	xor    %edi,%edi
  10132f:	8b 74 24 58          	mov    0x58(%esp),%esi
  101333:	89 44 24 38          	mov    %eax,0x38(%esp)
  101337:	8d 83 06 a9 fe ff    	lea    -0x156fa(%ebx),%eax
  10133d:	89 44 24 3c          	mov    %eax,0x3c(%esp)
  101341:	8d 83 dc a7 fe ff    	lea    -0x15824(%ebx),%eax
  101347:	89 44 24 40          	mov    %eax,0x40(%esp)
  10134b:	e9 86 00 00 00       	jmp    1013d6 <_Z10ModuleInitv+0x426>
  101350:	8b 54 24 4c          	mov    0x4c(%esp),%edx
  101354:	03 55 00             	add    0x0(%ebp),%edx
  101357:	8b 06                	mov    (%esi),%eax
  101359:	03 82 bf 01 00 00    	add    0x1bf(%edx),%eax
  10135f:	01 f8                	add    %edi,%eax
  101361:	c1 e8 0c             	shr    $0xc,%eax
  101364:	89 44 24 28          	mov    %eax,0x28(%esp)
  101368:	83 ec 0c             	sub    $0xc,%esp
  10136b:	ff 74 24 48          	pushl  0x48(%esp)
  10136f:	e8 bc 07 00 00       	call   101b30 <_Z10SerialPutSPKc>
  101374:	8b 46 04             	mov    0x4(%esi),%eax
  101377:	01 f8                	add    %edi,%eax
  101379:	89 04 24             	mov    %eax,(%esp)
  10137c:	e8 2f 07 00 00       	call   101ab0 <_Z12SerialPutHexm>
  101381:	5a                   	pop    %edx
  101382:	ff 74 24 4c          	pushl  0x4c(%esp)
  101386:	e8 a5 07 00 00       	call   101b30 <_Z10SerialPutSPKc>
  10138b:	59                   	pop    %ecx
  10138c:	ff 74 24 34          	pushl  0x34(%esp)
  101390:	e8 1b 07 00 00       	call   101ab0 <_Z12SerialPutHexm>
  101395:	58                   	pop    %eax
  101396:	ff 74 24 20          	pushl  0x20(%esp)
  10139a:	e8 91 07 00 00       	call   101b30 <_Z10SerialPutSPKc>
  10139f:	58                   	pop    %eax
  1013a0:	ff 74 24 44          	pushl  0x44(%esp)
  1013a4:	8b 44 24 44          	mov    0x44(%esp),%eax
  1013a8:	8b 40 18             	mov    0x18(%eax),%eax
  1013ab:	89 44 24 3c          	mov    %eax,0x3c(%esp)
  1013af:	d1 e8                	shr    %eax
  1013b1:	83 e0 01             	and    $0x1,%eax
  1013b4:	50                   	push   %eax
  1013b5:	ff 74 24 3c          	pushl  0x3c(%esp)
  1013b9:	8b 46 04             	mov    0x4(%esi),%eax
  1013bc:	01 f8                	add    %edi,%eax
  1013be:	81 c7 00 10 00 00    	add    $0x1000,%edi
  1013c4:	50                   	push   %eax
  1013c5:	ff 74 24 60          	pushl  0x60(%esp)
  1013c9:	e8 42 fa ff ff       	call   100e10 <_Z13MmuMapToFramemmmbb>
  1013ce:	83 c4 20             	add    $0x20,%esp
  1013d1:	39 7e 10             	cmp    %edi,0x10(%esi)
  1013d4:	76 3a                	jbe    101410 <_Z10ModuleInitv+0x460>
  1013d6:	39 7e 0c             	cmp    %edi,0xc(%esi)
  1013d9:	0f 83 71 ff ff ff    	jae    101350 <_Z10ModuleInitv+0x3a0>
  1013df:	e8 bc 04 00 00       	call   1018a0 <_Z11PmmNewFramev>
  1013e4:	83 ec 04             	sub    $0x4,%esp
  1013e7:	89 44 24 2c          	mov    %eax,0x2c(%esp)
  1013eb:	c1 e0 0c             	shl    $0xc,%eax
  1013ee:	68 00 10 00 00       	push   $0x1000
  1013f3:	6a 00                	push   $0x0
  1013f5:	50                   	push   %eax
  1013f6:	e8 a5 07 00 00       	call   101ba0 <kMemSetB>
  1013fb:	83 c4 10             	add    $0x10,%esp
  1013fe:	e9 65 ff ff ff       	jmp    101368 <_Z10ModuleInitv+0x3b8>
  101403:	8d b6 00 00 00 00    	lea    0x0(%esi),%esi
  101409:	8d bc 27 00 00 00 00 	lea    0x0(%edi,%eiz,1),%edi
  101410:	8b 44 24 5c          	mov    0x5c(%esp),%eax
  101414:	83 44 24 54 01       	addl   $0x1,0x54(%esp)
  101419:	8b 54 24 54          	mov    0x54(%esp),%edx
  10141d:	83 44 24 58 20       	addl   $0x20,0x58(%esp)
  101422:	0f b7 40 2c          	movzwl 0x2c(%eax),%eax
  101426:	39 d0                	cmp    %edx,%eax
  101428:	0f 8f 72 fe ff ff    	jg     1012a0 <_Z10ModuleInitv+0x2f0>
  10142e:	8b 45 00             	mov    0x0(%ebp),%eax
  101431:	8b 54 24 34          	mov    0x34(%esp),%edx
  101435:	8b 52 04             	mov    0x4(%edx),%edx
  101438:	85 d2                	test   %edx,%edx
  10143a:	0f 84 53 fc ff ff    	je     101093 <_Z10ModuleInitv+0xe3>
  101440:	8b b8 03 03 00 00    	mov    0x303(%eax),%edi
  101446:	31 f6                	xor    %esi,%esi
  101448:	89 44 24 24          	mov    %eax,0x24(%esp)
  10144c:	8d 74 26 00          	lea    0x0(%esi,%eiz,1),%esi
  101450:	8d 8e 00 00 10 00    	lea    0x100000(%esi),%ecx
  101456:	ba 01 00 00 00       	mov    $0x1,%edx
  10145b:	81 c6 00 10 00 00    	add    $0x1000,%esi
  101461:	89 c8                	mov    %ecx,%eax
  101463:	c1 e9 0c             	shr    $0xc,%ecx
  101466:	c1 e8 11             	shr    $0x11,%eax
  101469:	d3 e2                	shl    %cl,%edx
  10146b:	09 14 87             	or     %edx,(%edi,%eax,4)
  10146e:	8b 44 24 34          	mov    0x34(%esp),%eax
  101472:	39 70 04             	cmp    %esi,0x4(%eax)
  101475:	77 d9                	ja     101450 <_Z10ModuleInitv+0x4a0>
  101477:	8b 44 24 24          	mov    0x24(%esp),%eax
  10147b:	e9 13 fc ff ff       	jmp    101093 <_Z10ModuleInitv+0xe3>
  101480:	8b 54 24 6c          	mov    0x6c(%esp),%edx
  101484:	03 54 24 10          	add    0x10(%esp),%edx
  101488:	89 54 24 34          	mov    %edx,0x34(%esp)
  10148c:	eb a3                	jmp    101431 <_Z10ModuleInitv+0x481>
  10148e:	8d 83 e8 a7 fe ff    	lea    -0x15818(%ebx),%eax
  101494:	83 ec 0c             	sub    $0xc,%esp
  101497:	50                   	push   %eax
  101498:	e8 93 06 00 00       	call   101b30 <_Z10SerialPutSPKc>
  10149d:	e8 3b ec ff ff       	call   1000dd <Halt>
  1014a2:	66 90                	xchg   %ax,%ax
  1014a4:	66 90                	xchg   %ax,%ax
  1014a6:	66 90                	xchg   %ax,%ax
  1014a8:	66 90                	xchg   %ax,%ax
  1014aa:	66 90                	xchg   %ax,%ax
  1014ac:	66 90                	xchg   %ax,%ax
  1014ae:	66 90                	xchg   %ax,%ax

001014b0 <_Z7PmmInitv>:
  1014b0:	55                   	push   %ebp
  1014b1:	57                   	push   %edi
  1014b2:	56                   	push   %esi
  1014b3:	53                   	push   %ebx
  1014b4:	e8 d4 03 00 00       	call   10188d <__x86.get_pc_thunk.ax>
  1014b9:	05 bf 75 01 00       	add    $0x175bf,%eax
  1014be:	83 ec 3c             	sub    $0x3c,%esp
  1014c1:	89 44 24 0c          	mov    %eax,0xc(%esp)
  1014c5:	c7 c0 a0 90 11 00    	mov    $0x1190a0,%eax
  1014cb:	8b 08                	mov    (%eax),%ecx
  1014cd:	89 44 24 10          	mov    %eax,0x10(%esp)
  1014d1:	80 79 25 00          	cmpb   $0x0,0x25(%ecx)
  1014d5:	0f 84 98 03 00 00    	je     101873 <_Z7PmmInitv+0x3c3>
  1014db:	8b 79 1d             	mov    0x1d(%ecx),%edi
  1014de:	8b 69 21             	mov    0x21(%ecx),%ebp
  1014e1:	8b 31                	mov    (%ecx),%esi
  1014e3:	89 fb                	mov    %edi,%ebx
  1014e5:	89 f8                	mov    %edi,%eax
  1014e7:	81 e3 ff 7f 00 00    	and    $0x7fff,%ebx
  1014ed:	85 db                	test   %ebx,%ebx
  1014ef:	0f 95 c3             	setne  %bl
  1014f2:	0f ac e8 1b          	shrd   $0x1b,%ebp,%eax
  1014f6:	0f b6 db             	movzbl %bl,%ebx
  1014f9:	01 d8                	add    %ebx,%eax
  1014fb:	85 f6                	test   %esi,%esi
  1014fd:	89 44 24 20          	mov    %eax,0x20(%esp)
  101501:	75 03                	jne    101506 <_Z7PmmInitv+0x56>
  101503:	8b 71 15             	mov    0x15(%ecx),%esi
  101506:	83 ec 0c             	sub    $0xc,%esp
  101509:	8b 7c 24 18          	mov    0x18(%esp),%edi
  10150d:	8d 87 b5 a9 fe ff    	lea    -0x1564b(%edi),%eax
  101513:	89 fb                	mov    %edi,%ebx
  101515:	50                   	push   %eax
  101516:	e8 15 06 00 00       	call   101b30 <_Z10SerialPutSPKc>
  10151b:	5f                   	pop    %edi
  10151c:	8b 44 24 1c          	mov    0x1c(%esp),%eax
  101520:	8b 00                	mov    (%eax),%eax
  101522:	ff 70 1d             	pushl  0x1d(%eax)
  101525:	e8 86 05 00 00       	call   101ab0 <_Z12SerialPutHexm>
  10152a:	c7 04 24 0a 00 00 00 	movl   $0xa,(%esp)
  101531:	e8 1a 05 00 00       	call   101a50 <_Z13SerialPutCharc>
  101536:	83 c4 10             	add    $0x10,%esp
  101539:	85 f6                	test   %esi,%esi
  10153b:	0f 84 09 03 00 00    	je     10184a <_Z7PmmInitv+0x39a>
  101541:	8b 44 24 20          	mov    0x20(%esp),%eax
  101545:	89 c1                	mov    %eax,%ecx
  101547:	c1 e0 0e             	shl    $0xe,%eax
  10154a:	29 c6                	sub    %eax,%esi
  10154c:	c1 e1 0c             	shl    $0xc,%ecx
  10154f:	89 f0                	mov    %esi,%eax
  101551:	25 00 f0 ff ff       	and    $0xfffff000,%eax
  101556:	8d 90 00 00 ff ff    	lea    -0x10000(%eax),%edx
  10155c:	89 c3                	mov    %eax,%ebx
  10155e:	c1 eb 0c             	shr    $0xc,%ebx
  101561:	c1 ea 0c             	shr    $0xc,%edx
  101564:	89 5c 24 24          	mov    %ebx,0x24(%esp)
  101568:	8d 5a 10             	lea    0x10(%edx),%ebx
  10156b:	89 54 24 28          	mov    %edx,0x28(%esp)
  10156f:	89 5c 24 2c          	mov    %ebx,0x2c(%esp)
  101573:	8b 74 24 10          	mov    0x10(%esp),%esi
  101577:	8b 5c 24 20          	mov    0x20(%esp),%ebx
  10157b:	83 ec 04             	sub    $0x4,%esp
  10157e:	8b 16                	mov    (%esi),%edx
  101580:	89 9a 07 03 00 00    	mov    %ebx,0x307(%edx)
  101586:	89 82 03 03 00 00    	mov    %eax,0x303(%edx)
  10158c:	51                   	push   %ecx
  10158d:	6a 00                	push   $0x0
  10158f:	50                   	push   %eax
  101590:	8b 7c 24 1c          	mov    0x1c(%esp),%edi
  101594:	89 fb                	mov    %edi,%ebx
  101596:	e8 05 06 00 00       	call   101ba0 <kMemSetB>
  10159b:	8b 2e                	mov    (%esi),%ebp
  10159d:	83 c4 10             	add    $0x10,%esp
  1015a0:	8b 4d 26             	mov    0x26(%ebp),%ecx
  1015a3:	85 c9                	test   %ecx,%ecx
  1015a5:	0f 8e da 00 00 00    	jle    101685 <_Z7PmmInitv+0x1d5>
  1015ab:	8d 9f 6c a9 fe ff    	lea    -0x15694(%edi),%ebx
  1015b1:	8d 87 d0 a9 fe ff    	lea    -0x15630(%edi),%eax
  1015b7:	c7 44 24 04 00 00 00 	movl   $0x0,0x4(%esp)
  1015be:	00 
  1015bf:	89 5c 24 14          	mov    %ebx,0x14(%esp)
  1015c3:	8d 9f ca a9 fe ff    	lea    -0x15636(%edi),%ebx
  1015c9:	89 44 24 1c          	mov    %eax,0x1c(%esp)
  1015cd:	bf 01 00 00 00       	mov    $0x1,%edi
  1015d2:	89 5c 24 18          	mov    %ebx,0x18(%esp)
  1015d6:	8d 76 00             	lea    0x0(%esi),%esi
  1015d9:	8d bc 27 00 00 00 00 	lea    0x0(%edi,%eiz,1),%edi
  1015e0:	8b 44 24 04          	mov    0x4(%esp),%eax
  1015e4:	83 ec 0c             	sub    $0xc,%esp
  1015e7:	c1 e0 04             	shl    $0x4,%eax
  1015ea:	01 c5                	add    %eax,%ebp
  1015ec:	8b 4d 2a             	mov    0x2a(%ebp),%ecx
  1015ef:	8b 5d 32             	mov    0x32(%ebp),%ebx
  1015f2:	c1 e9 0c             	shr    $0xc,%ecx
  1015f5:	c1 eb 0c             	shr    $0xc,%ebx
  1015f8:	89 4c 24 14          	mov    %ecx,0x14(%esp)
  1015fc:	ff 74 24 20          	pushl  0x20(%esp)
  101600:	89 de                	mov    %ebx,%esi
  101602:	8b 6c 24 1c          	mov    0x1c(%esp),%ebp
  101606:	89 eb                	mov    %ebp,%ebx
  101608:	e8 23 05 00 00       	call   101b30 <_Z10SerialPutSPKc>
  10160d:	8b 4c 24 18          	mov    0x18(%esp),%ecx
  101611:	89 0c 24             	mov    %ecx,(%esp)
  101614:	89 4c 24 18          	mov    %ecx,0x18(%esp)
  101618:	e8 93 04 00 00       	call   101ab0 <_Z12SerialPutHexm>
  10161d:	58                   	pop    %eax
  10161e:	ff 74 24 24          	pushl  0x24(%esp)
  101622:	e8 09 05 00 00       	call   101b30 <_Z10SerialPutSPKc>
  101627:	89 34 24             	mov    %esi,(%esp)
  10162a:	e8 81 04 00 00       	call   101ab0 <_Z12SerialPutHexm>
  10162f:	5a                   	pop    %edx
  101630:	ff 74 24 28          	pushl  0x28(%esp)
  101634:	e8 f7 04 00 00       	call   101b30 <_Z10SerialPutSPKc>
  101639:	8b 4c 24 18          	mov    0x18(%esp),%ecx
  10163d:	83 c4 10             	add    $0x10,%esp
  101640:	8b 44 24 10          	mov    0x10(%esp),%eax
  101644:	8d 1c 0e             	lea    (%esi,%ecx,1),%ebx
  101647:	8b 28                	mov    (%eax),%ebp
  101649:	39 cb                	cmp    %ecx,%ebx
  10164b:	76 26                	jbe    101673 <_Z7PmmInitv+0x1c3>
  10164d:	8b 95 03 03 00 00    	mov    0x303(%ebp),%edx
  101653:	8d b6 00 00 00 00    	lea    0x0(%esi),%esi
  101659:	8d bc 27 00 00 00 00 	lea    0x0(%edi,%eiz,1),%edi
  101660:	89 c8                	mov    %ecx,%eax
  101662:	89 fe                	mov    %edi,%esi
  101664:	d3 e6                	shl    %cl,%esi
  101666:	c1 e8 05             	shr    $0x5,%eax
  101669:	83 c1 01             	add    $0x1,%ecx
  10166c:	09 34 82             	or     %esi,(%edx,%eax,4)
  10166f:	39 d9                	cmp    %ebx,%ecx
  101671:	75 ed                	jne    101660 <_Z7PmmInitv+0x1b0>
  101673:	83 44 24 04 01       	addl   $0x1,0x4(%esp)
  101678:	8b 44 24 04          	mov    0x4(%esp),%eax
  10167c:	3b 45 26             	cmp    0x26(%ebp),%eax
  10167f:	0f 8c 5b ff ff ff    	jl     1015e0 <_Z7PmmInitv+0x130>
  101685:	8b 85 03 03 00 00    	mov    0x303(%ebp),%eax
  10168b:	83 20 fc             	andl   $0xfffffffc,(%eax)
  10168e:	8b 4d 00             	mov    0x0(%ebp),%ecx
  101691:	85 c9                	test   %ecx,%ecx
  101693:	74 34                	je     1016c9 <_Z7PmmInitv+0x219>
  101695:	c1 e9 0c             	shr    $0xc,%ecx
  101698:	81 f9 ff 00 00 00    	cmp    $0xff,%ecx
  10169e:	77 29                	ja     1016c9 <_Z7PmmInitv+0x219>
  1016a0:	be 01 00 00 00       	mov    $0x1,%esi
  1016a5:	8d 74 26 00          	lea    0x0(%esi,%eiz,1),%esi
  1016a9:	8d bc 27 00 00 00 00 	lea    0x0(%edi,%eiz,1),%edi
  1016b0:	89 cb                	mov    %ecx,%ebx
  1016b2:	89 f2                	mov    %esi,%edx
  1016b4:	d3 e2                	shl    %cl,%edx
  1016b6:	c1 eb 05             	shr    $0x5,%ebx
  1016b9:	83 c1 01             	add    $0x1,%ecx
  1016bc:	f7 d2                	not    %edx
  1016be:	21 14 98             	and    %edx,(%eax,%ebx,4)
  1016c1:	81 f9 00 01 00 00    	cmp    $0x100,%ecx
  1016c7:	75 e7                	jne    1016b0 <_Z7PmmInitv+0x200>
  1016c9:	8b 5c 24 0c          	mov    0xc(%esp),%ebx
  1016cd:	c7 c7 00 00 10 00    	mov    $0x100000,%edi
  1016d3:	c7 c3 00 c0 11 00    	mov    $0x11c000,%ebx
  1016d9:	89 f9                	mov    %edi,%ecx
  1016db:	89 df                	mov    %ebx,%edi
  1016dd:	89 5c 24 04          	mov    %ebx,0x4(%esp)
  1016e1:	c1 e9 0c             	shr    $0xc,%ecx
  1016e4:	c1 ef 0c             	shr    $0xc,%edi
  1016e7:	bb 01 00 00 00       	mov    $0x1,%ebx
  1016ec:	39 cf                	cmp    %ecx,%edi
  1016ee:	76 15                	jbe    101705 <_Z7PmmInitv+0x255>
  1016f0:	89 ca                	mov    %ecx,%edx
  1016f2:	89 de                	mov    %ebx,%esi
  1016f4:	d3 e6                	shl    %cl,%esi
  1016f6:	c1 ea 05             	shr    $0x5,%edx
  1016f9:	83 c1 01             	add    $0x1,%ecx
  1016fc:	f7 d6                	not    %esi
  1016fe:	21 34 90             	and    %esi,(%eax,%edx,4)
  101701:	39 f9                	cmp    %edi,%ecx
  101703:	75 eb                	jne    1016f0 <_Z7PmmInitv+0x240>
  101705:	31 db                	xor    %ebx,%ebx
  101707:	3b 5d 21             	cmp    0x21(%ebp),%ebx
  10170a:	8b 95 0c 03 00 00    	mov    0x30c(%ebp),%edx
  101710:	0f 82 f6 00 00 00    	jb     10180c <_Z7PmmInitv+0x35c>
  101716:	0f 86 e7 00 00 00    	jbe    101803 <_Z7PmmInitv+0x353>
  10171c:	80 bd ba 01 00 00 00 	cmpb   $0x0,0x1ba(%ebp)
  101723:	74 59                	je     10177e <_Z7PmmInitv+0x2ce>
  101725:	8b 95 bb 01 00 00    	mov    0x1bb(%ebp),%edx
  10172b:	85 d2                	test   %edx,%edx
  10172d:	7e 4f                	jle    10177e <_Z7PmmInitv+0x2ce>
  10172f:	c1 e2 05             	shl    $0x5,%edx
  101732:	be 01 00 00 00       	mov    $0x1,%esi
  101737:	8d 5c 15 00          	lea    0x0(%ebp,%edx,1),%ebx
  10173b:	89 5c 24 04          	mov    %ebx,0x4(%esp)
  10173f:	90                   	nop
  101740:	8b 9d c3 01 00 00    	mov    0x1c3(%ebp),%ebx
  101746:	8b 8d bf 01 00 00    	mov    0x1bf(%ebp),%ecx
  10174c:	c1 eb 0c             	shr    $0xc,%ebx
  10174f:	c1 e9 0c             	shr    $0xc,%ecx
  101752:	83 c3 01             	add    $0x1,%ebx
  101755:	39 cb                	cmp    %ecx,%ebx
  101757:	76 1c                	jbe    101775 <_Z7PmmInitv+0x2c5>
  101759:	8d b4 26 00 00 00 00 	lea    0x0(%esi,%eiz,1),%esi
  101760:	89 ca                	mov    %ecx,%edx
  101762:	89 f7                	mov    %esi,%edi
  101764:	d3 e7                	shl    %cl,%edi
  101766:	c1 ea 05             	shr    $0x5,%edx
  101769:	83 c1 01             	add    $0x1,%ecx
  10176c:	f7 d7                	not    %edi
  10176e:	21 3c 90             	and    %edi,(%eax,%edx,4)
  101771:	39 cb                	cmp    %ecx,%ebx
  101773:	75 eb                	jne    101760 <_Z7PmmInitv+0x2b0>
  101775:	83 c5 20             	add    $0x20,%ebp
  101778:	39 6c 24 04          	cmp    %ebp,0x4(%esp)
  10177c:	75 c2                	jne    101740 <_Z7PmmInitv+0x290>
  10177e:	81 60 3c ff ff ff 7f 	andl   $0x7fffffff,0x3c(%eax)
  101785:	83 20 f7             	andl   $0xfffffff7,(%eax)
  101788:	8b 7c 24 28          	mov    0x28(%esp),%edi
  10178c:	39 7c 24 2c          	cmp    %edi,0x2c(%esp)
  101790:	76 23                	jbe    1017b5 <_Z7PmmInitv+0x305>
  101792:	8b 4c 24 28          	mov    0x28(%esp),%ecx
  101796:	8b 7c 24 2c          	mov    0x2c(%esp),%edi
  10179a:	bb 01 00 00 00       	mov    $0x1,%ebx
  10179f:	90                   	nop
  1017a0:	89 ce                	mov    %ecx,%esi
  1017a2:	89 da                	mov    %ebx,%edx
  1017a4:	d3 e2                	shl    %cl,%edx
  1017a6:	c1 ee 05             	shr    $0x5,%esi
  1017a9:	83 c1 01             	add    $0x1,%ecx
  1017ac:	f7 d2                	not    %edx
  1017ae:	21 14 b0             	and    %edx,(%eax,%esi,4)
  1017b1:	39 f9                	cmp    %edi,%ecx
  1017b3:	75 eb                	jne    1017a0 <_Z7PmmInitv+0x2f0>
  1017b5:	8b 7c 24 24          	mov    0x24(%esp),%edi
  1017b9:	8b 5c 24 20          	mov    0x20(%esp),%ebx
  1017bd:	be 01 00 00 00       	mov    $0x1,%esi
  1017c2:	8b 4c 24 24          	mov    0x24(%esp),%ecx
  1017c6:	01 fb                	add    %edi,%ebx
  1017c8:	39 fb                	cmp    %edi,%ebx
  1017ca:	76 19                	jbe    1017e5 <_Z7PmmInitv+0x335>
  1017cc:	8d 74 26 00          	lea    0x0(%esi,%eiz,1),%esi
  1017d0:	89 cf                	mov    %ecx,%edi
  1017d2:	89 f2                	mov    %esi,%edx
  1017d4:	d3 e2                	shl    %cl,%edx
  1017d6:	c1 ef 05             	shr    $0x5,%edi
  1017d9:	83 c1 01             	add    $0x1,%ecx
  1017dc:	f7 d2                	not    %edx
  1017de:	21 14 b8             	and    %edx,(%eax,%edi,4)
  1017e1:	39 cb                	cmp    %ecx,%ebx
  1017e3:	75 eb                	jne    1017d0 <_Z7PmmInitv+0x320>
  1017e5:	83 ec 0c             	sub    $0xc,%esp
  1017e8:	8b 5c 24 18          	mov    0x18(%esp),%ebx
  1017ec:	8d 83 90 a9 fe ff    	lea    -0x15670(%ebx),%eax
  1017f2:	50                   	push   %eax
  1017f3:	e8 38 03 00 00       	call   101b30 <_Z10SerialPutSPKc>
  1017f8:	83 c4 10             	add    $0x10,%esp
  1017fb:	83 c4 3c             	add    $0x3c,%esp
  1017fe:	5b                   	pop    %ebx
  1017ff:	5e                   	pop    %esi
  101800:	5f                   	pop    %edi
  101801:	5d                   	pop    %ebp
  101802:	c3                   	ret    
  101803:	3b 55 1d             	cmp    0x1d(%ebp),%edx
  101806:	0f 83 10 ff ff ff    	jae    10171c <_Z7PmmInitv+0x26c>
  10180c:	c1 ea 0c             	shr    $0xc,%edx
  10180f:	8d 9a 80 01 00 00    	lea    0x180(%edx),%ebx
  101815:	89 d1                	mov    %edx,%ecx
  101817:	39 d3                	cmp    %edx,%ebx
  101819:	0f 86 fd fe ff ff    	jbe    10171c <_Z7PmmInitv+0x26c>
  10181f:	be 01 00 00 00       	mov    $0x1,%esi
  101824:	8d b6 00 00 00 00    	lea    0x0(%esi),%esi
  10182a:	8d bf 00 00 00 00    	lea    0x0(%edi),%edi
  101830:	89 ca                	mov    %ecx,%edx
  101832:	89 f7                	mov    %esi,%edi
  101834:	d3 e7                	shl    %cl,%edi
  101836:	c1 ea 05             	shr    $0x5,%edx
  101839:	83 c1 01             	add    $0x1,%ecx
  10183c:	f7 d7                	not    %edi
  10183e:	21 3c 90             	and    %edi,(%eax,%edx,4)
  101841:	39 cb                	cmp    %ecx,%ebx
  101843:	77 eb                	ja     101830 <_Z7PmmInitv+0x380>
  101845:	e9 d2 fe ff ff       	jmp    10171c <_Z7PmmInitv+0x26c>
  10184a:	8b 4c 24 20          	mov    0x20(%esp),%ecx
  10184e:	c7 44 24 28 f4 ff 0f 	movl   $0xffff4,0x28(%esp)
  101855:	00 
  101856:	b8 00 40 00 00       	mov    $0x4000,%eax
  10185b:	c7 44 24 2c 04 00 10 	movl   $0x100004,0x2c(%esp)
  101862:	00 
  101863:	c7 44 24 24 04 00 00 	movl   $0x4,0x24(%esp)
  10186a:	00 
  10186b:	c1 e1 0c             	shl    $0xc,%ecx
  10186e:	e9 00 fd ff ff       	jmp    101573 <_Z7PmmInitv+0xc3>
  101873:	83 ec 0c             	sub    $0xc,%esp
  101876:	8b 7c 24 18          	mov    0x18(%esp),%edi
  10187a:	8d 87 24 a9 fe ff    	lea    -0x156dc(%edi),%eax
  101880:	89 fb                	mov    %edi,%ebx
  101882:	50                   	push   %eax
  101883:	e8 a8 02 00 00       	call   101b30 <_Z10SerialPutSPKc>
  101888:	e8 50 e8 ff ff       	call   1000dd <Halt>

0010188d <__x86.get_pc_thunk.ax>:
  10188d:	8b 04 24             	mov    (%esp),%eax
  101890:	c3                   	ret    
  101891:	66 90                	xchg   %ax,%ax
  101893:	66 90                	xchg   %ax,%ax
  101895:	66 90                	xchg   %ax,%ax
  101897:	66 90                	xchg   %ax,%ax
  101899:	66 90                	xchg   %ax,%ax
  10189b:	66 90                	xchg   %ax,%ax
  10189d:	66 90                	xchg   %ax,%ax
  10189f:	90                   	nop

001018a0 <_Z11PmmNewFramev>:
  1018a0:	55                   	push   %ebp
  1018a1:	57                   	push   %edi
  1018a2:	b9 ff ff 0f 00       	mov    $0xfffff,%ecx
  1018a7:	56                   	push   %esi
  1018a8:	53                   	push   %ebx
  1018a9:	e8 df ff ff ff       	call   10188d <__x86.get_pc_thunk.ax>
  1018ae:	05 ca 71 01 00       	add    $0x171ca,%eax
  1018b3:	83 ec 1c             	sub    $0x1c,%esp
  1018b6:	89 44 24 04          	mov    %eax,0x4(%esp)
  1018ba:	c7 c0 a0 90 11 00    	mov    $0x1190a0,%eax
  1018c0:	89 44 24 08          	mov    %eax,0x8(%esp)
  1018c4:	8b 00                	mov    (%eax),%eax
  1018c6:	81 b8 ff 02 00 00 ff 	cmpl   $0xfffff,0x2ff(%eax)
  1018cd:	ff 0f 00 
  1018d0:	8b a8 07 03 00 00    	mov    0x307(%eax),%ebp
  1018d6:	0f 46 88 ff 02 00 00 	cmovbe 0x2ff(%eax),%ecx
  1018dd:	39 e9                	cmp    %ebp,%ecx
  1018df:	0f 84 82 00 00 00    	je     101967 <_Z11PmmNewFramev+0xc7>
  1018e5:	8b 90 03 03 00 00    	mov    0x303(%eax),%edx
  1018eb:	89 c8                	mov    %ecx,%eax
  1018ed:	be 01 00 00 00       	mov    $0x1,%esi
  1018f2:	c1 e8 05             	shr    $0x5,%eax
  1018f5:	d3 e6                	shl    %cl,%esi
  1018f7:	bb 01 00 00 00       	mov    $0x1,%ebx
  1018fc:	8d 3c 85 00 00 00 00 	lea    0x0(,%eax,4),%edi
  101903:	85 34 82             	test   %esi,(%edx,%eax,4)
  101906:	75 24                	jne    10192c <_Z11PmmNewFramev+0x8c>
  101908:	90                   	nop
  101909:	8d b4 26 00 00 00 00 	lea    0x0(%esi,%eiz,1),%esi
  101910:	83 c1 01             	add    $0x1,%ecx
  101913:	39 e9                	cmp    %ebp,%ecx
  101915:	74 50                	je     101967 <_Z11PmmNewFramev+0xc7>
  101917:	89 c8                	mov    %ecx,%eax
  101919:	89 de                	mov    %ebx,%esi
  10191b:	c1 e8 05             	shr    $0x5,%eax
  10191e:	d3 e6                	shl    %cl,%esi
  101920:	85 34 82             	test   %esi,(%edx,%eax,4)
  101923:	8d 3c 85 00 00 00 00 	lea    0x0(,%eax,4),%edi
  10192a:	74 e4                	je     101910 <_Z11PmmNewFramev+0x70>
  10192c:	83 ec 04             	sub    $0x4,%esp
  10192f:	89 c8                	mov    %ecx,%eax
  101931:	f7 d6                	not    %esi
  101933:	68 00 10 00 00       	push   $0x1000
  101938:	6a 00                	push   $0x0
  10193a:	c1 e0 0c             	shl    $0xc,%eax
  10193d:	89 4c 24 18          	mov    %ecx,0x18(%esp)
  101941:	50                   	push   %eax
  101942:	8b 5c 24 14          	mov    0x14(%esp),%ebx
  101946:	e8 55 02 00 00       	call   101ba0 <kMemSetB>
  10194b:	8b 44 24 18          	mov    0x18(%esp),%eax
  10194f:	8b 4c 24 1c          	mov    0x1c(%esp),%ecx
  101953:	8b 00                	mov    (%eax),%eax
  101955:	03 b8 03 03 00 00    	add    0x303(%eax),%edi
  10195b:	89 c8                	mov    %ecx,%eax
  10195d:	21 37                	and    %esi,(%edi)
  10195f:	83 c4 2c             	add    $0x2c,%esp
  101962:	5b                   	pop    %ebx
  101963:	5e                   	pop    %esi
  101964:	5f                   	pop    %edi
  101965:	5d                   	pop    %ebp
  101966:	c3                   	ret    
  101967:	83 ec 0c             	sub    $0xc,%esp
  10196a:	8b 7c 24 10          	mov    0x10(%esp),%edi
  10196e:	8d 87 dc a9 fe ff    	lea    -0x15624(%edi),%eax
  101974:	89 fb                	mov    %edi,%ebx
  101976:	50                   	push   %eax
  101977:	e8 b4 01 00 00       	call   101b30 <_Z10SerialPutSPKc>
  10197c:	e8 5c e7 ff ff       	call   1000dd <Halt>
  101981:	66 90                	xchg   %ax,%ax
  101983:	66 90                	xchg   %ax,%ax
  101985:	66 90                	xchg   %ax,%ax
  101987:	66 90                	xchg   %ax,%ax
  101989:	66 90                	xchg   %ax,%ax
  10198b:	66 90                	xchg   %ax,%ax
  10198d:	66 90                	xchg   %ax,%ax
  10198f:	90                   	nop

00101990 <RestoreInterrupts>:
  101990:	8b 44 24 04          	mov    0x4(%esp),%eax
  101994:	50                   	push   %eax
  101995:	9d                   	popf   
  101996:	c3                   	ret    
  101997:	66 90                	xchg   %ax,%ax
  101999:	66 90                	xchg   %ax,%ax
  10199b:	66 90                	xchg   %ax,%ax
  10199d:	66 90                	xchg   %ax,%ax
  10199f:	90                   	nop

001019a0 <_Z10SerialInitv>:
  1019a0:	56                   	push   %esi
  1019a1:	53                   	push   %ebx
  1019a2:	e8 d5 e7 ff ff       	call   10017c <__x86.get_pc_thunk.bx>
  1019a7:	81 c3 d1 70 01 00    	add    $0x170d1,%ebx
  1019ad:	83 ec 0c             	sub    $0xc,%esp
  1019b0:	0f b7 05 00 04 00 00 	movzwl 0x400,%eax
  1019b7:	c7 c6 00 a0 11 00    	mov    $0x11a000,%esi
  1019bd:	6a 00                	push   $0x0
  1019bf:	66 89 06             	mov    %ax,(%esi)
  1019c2:	83 c0 01             	add    $0x1,%eax
  1019c5:	0f b7 c0             	movzwl %ax,%eax
  1019c8:	50                   	push   %eax
  1019c9:	e8 02 09 00 00       	call   1022d0 <outb>
  1019ce:	58                   	pop    %eax
  1019cf:	0f b7 06             	movzwl (%esi),%eax
  1019d2:	5a                   	pop    %edx
  1019d3:	68 80 00 00 00       	push   $0x80
  1019d8:	83 c0 03             	add    $0x3,%eax
  1019db:	0f b7 c0             	movzwl %ax,%eax
  1019de:	50                   	push   %eax
  1019df:	e8 ec 08 00 00       	call   1022d0 <outb>
  1019e4:	59                   	pop    %ecx
  1019e5:	58                   	pop    %eax
  1019e6:	0f b7 06             	movzwl (%esi),%eax
  1019e9:	6a 03                	push   $0x3
  1019eb:	50                   	push   %eax
  1019ec:	e8 df 08 00 00       	call   1022d0 <outb>
  1019f1:	58                   	pop    %eax
  1019f2:	0f b7 06             	movzwl (%esi),%eax
  1019f5:	5a                   	pop    %edx
  1019f6:	6a 00                	push   $0x0
  1019f8:	83 c0 01             	add    $0x1,%eax
  1019fb:	0f b7 c0             	movzwl %ax,%eax
  1019fe:	50                   	push   %eax
  1019ff:	e8 cc 08 00 00       	call   1022d0 <outb>
  101a04:	59                   	pop    %ecx
  101a05:	58                   	pop    %eax
  101a06:	0f b7 06             	movzwl (%esi),%eax
  101a09:	6a 03                	push   $0x3
  101a0b:	83 c0 03             	add    $0x3,%eax
  101a0e:	0f b7 c0             	movzwl %ax,%eax
  101a11:	50                   	push   %eax
  101a12:	e8 b9 08 00 00       	call   1022d0 <outb>
  101a17:	58                   	pop    %eax
  101a18:	0f b7 06             	movzwl (%esi),%eax
  101a1b:	5a                   	pop    %edx
  101a1c:	68 c7 00 00 00       	push   $0xc7
  101a21:	83 c0 02             	add    $0x2,%eax
  101a24:	0f b7 c0             	movzwl %ax,%eax
  101a27:	50                   	push   %eax
  101a28:	e8 a3 08 00 00       	call   1022d0 <outb>
  101a2d:	59                   	pop    %ecx
  101a2e:	58                   	pop    %eax
  101a2f:	0f b7 06             	movzwl (%esi),%eax
  101a32:	6a 0b                	push   $0xb
  101a34:	83 c0 04             	add    $0x4,%eax
  101a37:	0f b7 c0             	movzwl %ax,%eax
  101a3a:	50                   	push   %eax
  101a3b:	e8 90 08 00 00       	call   1022d0 <outb>
  101a40:	83 c4 14             	add    $0x14,%esp
  101a43:	5b                   	pop    %ebx
  101a44:	5e                   	pop    %esi
  101a45:	c3                   	ret    
  101a46:	66 90                	xchg   %ax,%ax
  101a48:	66 90                	xchg   %ax,%ax
  101a4a:	66 90                	xchg   %ax,%ax
  101a4c:	66 90                	xchg   %ax,%ax
  101a4e:	66 90                	xchg   %ax,%ax

00101a50 <_Z13SerialPutCharc>:
  101a50:	57                   	push   %edi
  101a51:	56                   	push   %esi
  101a52:	53                   	push   %ebx
  101a53:	8b 74 24 10          	mov    0x10(%esp),%esi
  101a57:	e8 20 e7 ff ff       	call   10017c <__x86.get_pc_thunk.bx>
  101a5c:	81 c3 1c 70 01 00    	add    $0x1701c,%ebx
  101a62:	c7 c7 00 a0 11 00    	mov    $0x11a000,%edi
  101a68:	90                   	nop
  101a69:	8d b4 26 00 00 00 00 	lea    0x0(%esi,%eiz,1),%esi
  101a70:	0f b7 07             	movzwl (%edi),%eax
  101a73:	83 ec 0c             	sub    $0xc,%esp
  101a76:	83 c0 05             	add    $0x5,%eax
  101a79:	0f b7 c0             	movzwl %ax,%eax
  101a7c:	50                   	push   %eax
  101a7d:	e8 ee 00 00 00       	call   101b70 <inb>
  101a82:	83 c4 10             	add    $0x10,%esp
  101a85:	a8 20                	test   $0x20,%al
  101a87:	74 e7                	je     101a70 <_Z13SerialPutCharc+0x20>
  101a89:	89 f0                	mov    %esi,%eax
  101a8b:	83 ec 08             	sub    $0x8,%esp
  101a8e:	0f b6 f0             	movzbl %al,%esi
  101a91:	0f b7 07             	movzwl (%edi),%eax
  101a94:	56                   	push   %esi
  101a95:	50                   	push   %eax
  101a96:	e8 35 08 00 00       	call   1022d0 <outb>
  101a9b:	83 c4 10             	add    $0x10,%esp
  101a9e:	5b                   	pop    %ebx
  101a9f:	5e                   	pop    %esi
  101aa0:	5f                   	pop    %edi
  101aa1:	c3                   	ret    
  101aa2:	66 90                	xchg   %ax,%ax
  101aa4:	66 90                	xchg   %ax,%ax
  101aa6:	66 90                	xchg   %ax,%ax
  101aa8:	66 90                	xchg   %ax,%ax
  101aaa:	66 90                	xchg   %ax,%ax
  101aac:	66 90                	xchg   %ax,%ax
  101aae:	66 90                	xchg   %ax,%ax

00101ab0 <_Z12SerialPutHexm>:
  101ab0:	57                   	push   %edi
  101ab1:	56                   	push   %esi
  101ab2:	be 1c 00 00 00       	mov    $0x1c,%esi
  101ab7:	53                   	push   %ebx
  101ab8:	e8 bf e6 ff ff       	call   10017c <__x86.get_pc_thunk.bx>
  101abd:	81 c3 bb 6f 01 00    	add    $0x16fbb,%ebx
  101ac3:	83 ec 2c             	sub    $0x2c,%esp
  101ac6:	8d 83 01 aa fe ff    	lea    -0x155ff(%ebx),%eax
  101acc:	8b 7c 24 3c          	mov    0x3c(%esp),%edi
  101ad0:	c7 44 24 1b 30 31 32 	movl   $0x33323130,0x1b(%esp)
  101ad7:	33 
  101ad8:	c7 44 24 1f 34 35 36 	movl   $0x37363534,0x1f(%esp)
  101adf:	37 
  101ae0:	c7 44 24 23 38 39 61 	movl   $0x62613938,0x23(%esp)
  101ae7:	62 
  101ae8:	c7 44 24 27 63 64 65 	movl   $0x66656463,0x27(%esp)
  101aef:	66 
  101af0:	c6 44 24 2b 00       	movb   $0x0,0x2b(%esp)
  101af5:	50                   	push   %eax
  101af6:	e8 35 00 00 00       	call   101b30 <_Z10SerialPutSPKc>
  101afb:	83 c4 10             	add    $0x10,%esp
  101afe:	66 90                	xchg   %ax,%ax
  101b00:	89 f1                	mov    %esi,%ecx
  101b02:	89 f8                	mov    %edi,%eax
  101b04:	83 ec 0c             	sub    $0xc,%esp
  101b07:	d3 e8                	shr    %cl,%eax
  101b09:	83 ee 04             	sub    $0x4,%esi
  101b0c:	83 e0 0f             	and    $0xf,%eax
  101b0f:	0f be 44 04 1b       	movsbl 0x1b(%esp,%eax,1),%eax
  101b14:	50                   	push   %eax
  101b15:	e8 36 ff ff ff       	call   101a50 <_Z13SerialPutCharc>
  101b1a:	83 c4 10             	add    $0x10,%esp
  101b1d:	83 fe fc             	cmp    $0xfffffffc,%esi
  101b20:	75 de                	jne    101b00 <_Z12SerialPutHexm+0x50>
  101b22:	83 c4 20             	add    $0x20,%esp
  101b25:	5b                   	pop    %ebx
  101b26:	5e                   	pop    %esi
  101b27:	5f                   	pop    %edi
  101b28:	c3                   	ret    
  101b29:	66 90                	xchg   %ax,%ax
  101b2b:	66 90                	xchg   %ax,%ax
  101b2d:	66 90                	xchg   %ax,%ax
  101b2f:	90                   	nop

00101b30 <_Z10SerialPutSPKc>:
  101b30:	56                   	push   %esi
  101b31:	53                   	push   %ebx
  101b32:	e8 45 e6 ff ff       	call   10017c <__x86.get_pc_thunk.bx>
  101b37:	81 c3 41 6f 01 00    	add    $0x16f41,%ebx
  101b3d:	83 ec 04             	sub    $0x4,%esp
  101b40:	8b 74 24 10          	mov    0x10(%esp),%esi
  101b44:	0f be 06             	movsbl (%esi),%eax
  101b47:	84 c0                	test   %al,%al
  101b49:	74 1b                	je     101b66 <_Z10SerialPutSPKc+0x36>
  101b4b:	90                   	nop
  101b4c:	8d 74 26 00          	lea    0x0(%esi,%eiz,1),%esi
  101b50:	83 ec 0c             	sub    $0xc,%esp
  101b53:	83 c6 01             	add    $0x1,%esi
  101b56:	50                   	push   %eax
  101b57:	e8 f4 fe ff ff       	call   101a50 <_Z13SerialPutCharc>
  101b5c:	0f be 06             	movsbl (%esi),%eax
  101b5f:	83 c4 10             	add    $0x10,%esp
  101b62:	84 c0                	test   %al,%al
  101b64:	75 ea                	jne    101b50 <_Z10SerialPutSPKc+0x20>
  101b66:	83 c4 04             	add    $0x4,%esp
  101b69:	5b                   	pop    %ebx
  101b6a:	5e                   	pop    %esi
  101b6b:	c3                   	ret    
  101b6c:	66 90                	xchg   %ax,%ax
  101b6e:	66 90                	xchg   %ax,%ax

00101b70 <inb>:
  101b70:	55                   	push   %ebp
  101b71:	89 e5                	mov    %esp,%ebp
  101b73:	8b 55 08             	mov    0x8(%ebp),%edx
  101b76:	31 c0                	xor    %eax,%eax
  101b78:	ec                   	in     (%dx),%al
  101b79:	5d                   	pop    %ebp
  101b7a:	c3                   	ret    
  101b7b:	66 90                	xchg   %ax,%ax
  101b7d:	66 90                	xchg   %ax,%ax
  101b7f:	90                   	nop

00101b80 <kMemMove>:
  101b80:	55                   	push   %ebp
  101b81:	89 e5                	mov    %esp,%ebp
  101b83:	50                   	push   %eax
  101b84:	51                   	push   %ecx
  101b85:	57                   	push   %edi
  101b86:	8b 45 08             	mov    0x8(%ebp),%eax
  101b89:	89 c7                	mov    %eax,%edi
  101b8b:	8b 4d 10             	mov    0x10(%ebp),%ecx
  101b8e:	8b 45 0c             	mov    0xc(%ebp),%eax
  101b91:	89 c6                	mov    %eax,%esi
  101b93:	fc                   	cld    
  101b94:	f3 a4                	rep movsb %ds:(%esi),%es:(%edi)
  101b96:	5f                   	pop    %edi
  101b97:	59                   	pop    %ecx
  101b98:	58                   	pop    %eax
  101b99:	5d                   	pop    %ebp
  101b9a:	c3                   	ret    
  101b9b:	66 90                	xchg   %ax,%ax
  101b9d:	66 90                	xchg   %ax,%ax
  101b9f:	90                   	nop

00101ba0 <kMemSetB>:
  101ba0:	55                   	push   %ebp
  101ba1:	89 e5                	mov    %esp,%ebp
  101ba3:	50                   	push   %eax
  101ba4:	51                   	push   %ecx
  101ba5:	57                   	push   %edi
  101ba6:	8b 45 08             	mov    0x8(%ebp),%eax
  101ba9:	89 c7                	mov    %eax,%edi
  101bab:	8b 4d 10             	mov    0x10(%ebp),%ecx
  101bae:	8a 45 0c             	mov    0xc(%ebp),%al
  101bb1:	fc                   	cld    
  101bb2:	f3 aa                	rep stos %al,%es:(%edi)
  101bb4:	5f                   	pop    %edi
  101bb5:	59                   	pop    %ecx
  101bb6:	58                   	pop    %eax
  101bb7:	5d                   	pop    %ebp
  101bb8:	c3                   	ret    
  101bb9:	66 90                	xchg   %ax,%ax
  101bbb:	66 90                	xchg   %ax,%ax
  101bbd:	66 90                	xchg   %ax,%ax
  101bbf:	90                   	nop

00101bc0 <kMemSetW>:
  101bc0:	55                   	push   %ebp
  101bc1:	89 e5                	mov    %esp,%ebp
  101bc3:	50                   	push   %eax
  101bc4:	51                   	push   %ecx
  101bc5:	57                   	push   %edi
  101bc6:	8b 45 08             	mov    0x8(%ebp),%eax
  101bc9:	89 c7                	mov    %eax,%edi
  101bcb:	8b 4d 10             	mov    0x10(%ebp),%ecx
  101bce:	66 8b 45 0c          	mov    0xc(%ebp),%ax
  101bd2:	fc                   	cld    
  101bd3:	f3 66 ab             	rep stos %ax,%es:(%edi)
  101bd6:	5f                   	pop    %edi
  101bd7:	59                   	pop    %ecx
  101bd8:	58                   	pop    %eax
  101bd9:	5d                   	pop    %ebp
  101bda:	c3                   	ret    
  101bdb:	66 90                	xchg   %ax,%ax
  101bdd:	66 90                	xchg   %ax,%ax
  101bdf:	90                   	nop

00101be0 <kStrCpy>:
  101be0:	fc                   	cld    
  101be1:	56                   	push   %esi
  101be2:	57                   	push   %edi
  101be3:	8b 7c 24 0c          	mov    0xc(%esp),%edi
  101be7:	8b 74 24 10          	mov    0x10(%esp),%esi

00101beb <kStrCpy.loop>:
  101beb:	80 3e 00             	cmpb   $0x0,(%esi)
  101bee:	74 08                	je     101bf8 <kStrCpy.out>
  101bf0:	8a 06                	mov    (%esi),%al
  101bf2:	88 07                	mov    %al,(%edi)
  101bf4:	46                   	inc    %esi
  101bf5:	47                   	inc    %edi
  101bf6:	eb f3                	jmp    101beb <kStrCpy.loop>

00101bf8 <kStrCpy.out>:
  101bf8:	c6 07 00             	movb   $0x0,(%edi)
  101bfb:	8b 44 24 0c          	mov    0xc(%esp),%eax
  101bff:	5f                   	pop    %edi
  101c00:	5e                   	pop    %esi
  101c01:	c3                   	ret    
  101c02:	66 90                	xchg   %ax,%ax
  101c04:	66 90                	xchg   %ax,%ax
  101c06:	66 90                	xchg   %ax,%ax
  101c08:	66 90                	xchg   %ax,%ax
  101c0a:	66 90                	xchg   %ax,%ax
  101c0c:	66 90                	xchg   %ax,%ax
  101c0e:	66 90                	xchg   %ax,%ax

00101c10 <kStrLen>:
  101c10:	fc                   	cld    
  101c11:	51                   	push   %ecx
  101c12:	57                   	push   %edi
  101c13:	8b 7c 24 0c          	mov    0xc(%esp),%edi
  101c17:	b9 ff ff ff ff       	mov    $0xffffffff,%ecx
  101c1c:	31 c0                	xor    %eax,%eax
  101c1e:	f2 ae                	repnz scas %es:(%edi),%al
  101c20:	f7 d1                	not    %ecx
  101c22:	89 c8                	mov    %ecx,%eax
  101c24:	48                   	dec    %eax
  101c25:	5f                   	pop    %edi
  101c26:	59                   	pop    %ecx
  101c27:	c3                   	ret    
  101c28:	66 90                	xchg   %ax,%ax
  101c2a:	66 90                	xchg   %ax,%ax
  101c2c:	66 90                	xchg   %ax,%ax
  101c2e:	66 90                	xchg   %ax,%ax

00101c30 <_Z8Mb1Parsev>:
  101c30:	55                   	push   %ebp
  101c31:	57                   	push   %edi
  101c32:	e8 51 03 00 00       	call   101f88 <__x86.get_pc_thunk.di>
  101c37:	81 c7 41 6e 01 00    	add    $0x16e41,%edi
  101c3d:	56                   	push   %esi
  101c3e:	53                   	push   %ebx
  101c3f:	83 ec 3c             	sub    $0x3c,%esp
  101c42:	c7 c0 4c b3 11 00    	mov    $0x11b34c,%eax
  101c48:	89 44 24 1c          	mov    %eax,0x1c(%esp)
  101c4c:	8b 00                	mov    (%eax),%eax
  101c4e:	85 c0                	test   %eax,%eax
  101c50:	74 06                	je     101c58 <_Z8Mb1Parsev+0x28>
  101c52:	8b 00                	mov    (%eax),%eax
  101c54:	85 c0                	test   %eax,%eax
  101c56:	75 08                	jne    101c60 <_Z8Mb1Parsev+0x30>
  101c58:	83 c4 3c             	add    $0x3c,%esp
  101c5b:	5b                   	pop    %ebx
  101c5c:	5e                   	pop    %esi
  101c5d:	5f                   	pop    %edi
  101c5e:	5d                   	pop    %ebp
  101c5f:	c3                   	ret    
  101c60:	8d 87 04 b2 fe ff    	lea    -0x14dfc(%edi),%eax
  101c66:	83 ec 0c             	sub    $0xc,%esp
  101c69:	89 fb                	mov    %edi,%ebx
  101c6b:	50                   	push   %eax
  101c6c:	e8 bf fe ff ff       	call   101b30 <_Z10SerialPutSPKc>
  101c71:	8b 74 24 2c          	mov    0x2c(%esp),%esi
  101c75:	c7 c2 a0 90 11 00    	mov    $0x1190a0,%edx
  101c7b:	8b 06                	mov    (%esi),%eax
  101c7d:	89 54 24 28          	mov    %edx,0x28(%esp)
  101c81:	83 c4 10             	add    $0x10,%esp
  101c84:	8b 12                	mov    (%edx),%edx
  101c86:	8b 48 04             	mov    0x4(%eax),%ecx
  101c89:	8b 28                	mov    (%eax),%ebp
  101c8b:	c6 42 14 01          	movb   $0x1,0x14(%edx)
  101c8f:	89 4a 15             	mov    %ecx,0x15(%edx)
  101c92:	8b 48 08             	mov    0x8(%eax),%ecx
  101c95:	85 ed                	test   %ebp,%ebp
  101c97:	89 4a 19             	mov    %ecx,0x19(%edx)
  101c9a:	0f 84 2c 02 00 00    	je     101ecc <_Z8Mb1Parsev+0x29c>
  101ca0:	83 ec 0c             	sub    $0xc,%esp
  101ca3:	ff 70 10             	pushl  0x10(%eax)
  101ca6:	e8 85 fe ff ff       	call   101b30 <_Z10SerialPutSPKc>
  101cab:	8d 87 ee a5 fe ff    	lea    -0x15a12(%edi),%eax
  101cb1:	89 44 24 30          	mov    %eax,0x30(%esp)
  101cb5:	89 04 24             	mov    %eax,(%esp)
  101cb8:	e8 73 fe ff ff       	call   101b30 <_Z10SerialPutSPKc>
  101cbd:	8b 06                	mov    (%esi),%eax
  101cbf:	83 c4 10             	add    $0x10,%esp
  101cc2:	8b 08                	mov    (%eax),%ecx
  101cc4:	85 c9                	test   %ecx,%ecx
  101cc6:	74 90                	je     101c58 <_Z8Mb1Parsev+0x28>
  101cc8:	8d 87 28 b2 fe ff    	lea    -0x14dd8(%edi),%eax
  101cce:	83 ec 0c             	sub    $0xc,%esp
  101cd1:	50                   	push   %eax
  101cd2:	e8 59 fe ff ff       	call   101b30 <_Z10SerialPutSPKc>
  101cd7:	8b 06                	mov    (%esi),%eax
  101cd9:	83 c4 10             	add    $0x10,%esp
  101cdc:	8b 50 14             	mov    0x14(%eax),%edx
  101cdf:	8b 70 18             	mov    0x18(%eax),%esi
  101ce2:	85 d2                	test   %edx,%edx
  101ce4:	0f 84 d3 00 00 00    	je     101dbd <_Z8Mb1Parsev+0x18d>
  101cea:	8d 87 44 b2 fe ff    	lea    -0x14dbc(%edi),%eax
  101cf0:	31 ed                	xor    %ebp,%ebp
  101cf2:	83 c6 08             	add    $0x8,%esi
  101cf5:	89 6c 24 08          	mov    %ebp,0x8(%esp)
  101cf9:	89 44 24 24          	mov    %eax,0x24(%esp)
  101cfd:	8d 76 00             	lea    0x0(%esi),%esi
  101d00:	83 ec 0c             	sub    $0xc,%esp
  101d03:	89 fb                	mov    %edi,%ebx
  101d05:	ff 74 24 30          	pushl  0x30(%esp)
  101d09:	e8 22 fe ff ff       	call   101b30 <_Z10SerialPutSPKc>
  101d0e:	58                   	pop    %eax
  101d0f:	ff 36                	pushl  (%esi)
  101d11:	e8 1a fe ff ff       	call   101b30 <_Z10SerialPutSPKc>
  101d16:	58                   	pop    %eax
  101d17:	ff 74 24 2c          	pushl  0x2c(%esp)
  101d1b:	e8 10 fe ff ff       	call   101b30 <_Z10SerialPutSPKc>
  101d20:	8b 06                	mov    (%esi),%eax
  101d22:	8b 6e fc             	mov    -0x4(%esi),%ebp
  101d25:	8b 5e f8             	mov    -0x8(%esi),%ebx
  101d28:	89 44 24 20          	mov    %eax,0x20(%esp)
  101d2c:	8b 44 24 28          	mov    0x28(%esp),%eax
  101d30:	8b 10                	mov    (%eax),%edx
  101d32:	8b 82 bb 01 00 00    	mov    0x1bb(%edx),%eax
  101d38:	89 c1                	mov    %eax,%ecx
  101d3a:	c1 e1 05             	shl    $0x5,%ecx
  101d3d:	8d 8c 0a b0 01 00 00 	lea    0x1b0(%edx,%ecx,1),%ecx
  101d44:	89 59 0f             	mov    %ebx,0xf(%ecx)
  101d47:	89 69 13             	mov    %ebp,0x13(%ecx)
  101d4a:	8d 48 01             	lea    0x1(%eax),%ecx
  101d4d:	c1 e0 05             	shl    $0x5,%eax
  101d50:	89 8a bb 01 00 00    	mov    %ecx,0x1bb(%edx)
  101d56:	8d 84 02 d3 01 00 00 	lea    0x1d3(%edx,%eax,1),%eax
  101d5d:	59                   	pop    %ecx
  101d5e:	5b                   	pop    %ebx
  101d5f:	ff 74 24 18          	pushl  0x18(%esp)
  101d63:	50                   	push   %eax
  101d64:	89 fb                	mov    %edi,%ebx
  101d66:	e8 75 fe ff ff       	call   101be0 <kStrCpy>
  101d6b:	31 d2                	xor    %edx,%edx
  101d6d:	89 e8                	mov    %ebp,%eax
  101d6f:	0f ac d0 0c          	shrd   $0xc,%edx,%eax
  101d73:	c1 ea 0c             	shr    $0xc,%edx
  101d76:	89 44 24 20          	mov    %eax,0x20(%esp)
  101d7a:	89 c3                	mov    %eax,%ebx
  101d7c:	8b 44 24 28          	mov    0x28(%esp),%eax
  101d80:	89 54 24 24          	mov    %edx,0x24(%esp)
  101d84:	83 c4 10             	add    $0x10,%esp
  101d87:	8b 08                	mov    (%eax),%ecx
  101d89:	3b 99 ff 02 00 00    	cmp    0x2ff(%ecx),%ebx
  101d8f:	76 0a                	jbe    101d9b <_Z8Mb1Parsev+0x16b>
  101d91:	8b 44 24 10          	mov    0x10(%esp),%eax
  101d95:	89 81 ff 02 00 00    	mov    %eax,0x2ff(%ecx)
  101d9b:	8b 44 24 1c          	mov    0x1c(%esp),%eax
  101d9f:	83 44 24 08 01       	addl   $0x1,0x8(%esp)
  101da4:	83 c6 10             	add    $0x10,%esi
  101da7:	8b 54 24 08          	mov    0x8(%esp),%edx
  101dab:	c6 81 ba 01 00 00 01 	movb   $0x1,0x1ba(%ecx)
  101db2:	8b 00                	mov    (%eax),%eax
  101db4:	39 50 14             	cmp    %edx,0x14(%eax)
  101db7:	0f 87 43 ff ff ff    	ja     101d00 <_Z8Mb1Parsev+0xd0>
  101dbd:	8b 28                	mov    (%eax),%ebp
  101dbf:	85 ed                	test   %ebp,%ebp
  101dc1:	0f 84 05 01 00 00    	je     101ecc <_Z8Mb1Parsev+0x29c>
  101dc7:	8d 87 56 b2 fe ff    	lea    -0x14daa(%edi),%eax
  101dcd:	83 ec 0c             	sub    $0xc,%esp
  101dd0:	89 fb                	mov    %edi,%ebx
  101dd2:	50                   	push   %eax
  101dd3:	e8 58 fd ff ff       	call   101b30 <_Z10SerialPutSPKc>
  101dd8:	8b 44 24 2c          	mov    0x2c(%esp),%eax
  101ddc:	8b 00                	mov    (%eax),%eax
  101dde:	8b 50 2c             	mov    0x2c(%eax),%edx
  101de1:	89 44 24 3c          	mov    %eax,0x3c(%esp)
  101de5:	8b 70 30             	mov    0x30(%eax),%esi
  101de8:	89 54 24 34          	mov    %edx,0x34(%esp)
  101dec:	83 c4 10             	add    $0x10,%esp
  101def:	85 d2                	test   %edx,%edx
  101df1:	0f 84 a9 00 00 00    	je     101ea0 <_Z8Mb1Parsev+0x270>
  101df7:	8b 44 24 18          	mov    0x18(%esp),%eax
  101dfb:	8b 28                	mov    (%eax),%ebp
  101dfd:	eb 44                	jmp    101e43 <_Z8Mb1Parsev+0x213>
  101dff:	90                   	nop
  101e00:	8b 46 04             	mov    0x4(%esi),%eax
  101e03:	8b 56 08             	mov    0x8(%esi),%edx
  101e06:	89 44 24 10          	mov    %eax,0x10(%esp)
  101e0a:	89 54 24 14          	mov    %edx,0x14(%esp)
  101e0e:	8b 44 24 10          	mov    0x10(%esp),%eax
  101e12:	03 44 24 08          	add    0x8(%esp),%eax
  101e16:	8b 54 24 14          	mov    0x14(%esp),%edx
  101e1a:	13 54 24 0c          	adc    0xc(%esp),%edx
  101e1e:	3b 55 21             	cmp    0x21(%ebp),%edx
  101e21:	72 0d                	jb     101e30 <_Z8Mb1Parsev+0x200>
  101e23:	77 05                	ja     101e2a <_Z8Mb1Parsev+0x1fa>
  101e25:	3b 45 1d             	cmp    0x1d(%ebp),%eax
  101e28:	76 06                	jbe    101e30 <_Z8Mb1Parsev+0x200>
  101e2a:	89 45 1d             	mov    %eax,0x1d(%ebp)
  101e2d:	89 55 21             	mov    %edx,0x21(%ebp)
  101e30:	8b 16                	mov    (%esi),%edx
  101e32:	b8 fc ff ff ff       	mov    $0xfffffffc,%eax
  101e37:	29 d0                	sub    %edx,%eax
  101e39:	01 44 24 24          	add    %eax,0x24(%esp)
  101e3d:	8d 74 16 04          	lea    0x4(%esi,%edx,1),%esi
  101e41:	74 5d                	je     101ea0 <_Z8Mb1Parsev+0x270>
  101e43:	83 7e 14 01          	cmpl   $0x1,0x14(%esi)
  101e47:	8b 46 0c             	mov    0xc(%esi),%eax
  101e4a:	8b 56 10             	mov    0x10(%esi),%edx
  101e4d:	89 44 24 08          	mov    %eax,0x8(%esp)
  101e51:	89 54 24 0c          	mov    %edx,0xc(%esp)
  101e55:	75 a9                	jne    101e00 <_Z8Mb1Parsev+0x1d0>
  101e57:	8b 45 26             	mov    0x26(%ebp),%eax
  101e5a:	8b 4e 04             	mov    0x4(%esi),%ecx
  101e5d:	8b 5e 08             	mov    0x8(%esi),%ebx
  101e60:	89 c2                	mov    %eax,%edx
  101e62:	89 44 24 28          	mov    %eax,0x28(%esp)
  101e66:	89 4c 24 10          	mov    %ecx,0x10(%esp)
  101e6a:	c1 e2 04             	shl    $0x4,%edx
  101e6d:	89 5c 24 14          	mov    %ebx,0x14(%esp)
  101e71:	89 d0                	mov    %edx,%eax
  101e73:	8b 54 24 28          	mov    0x28(%esp),%edx
  101e77:	01 e8                	add    %ebp,%eax
  101e79:	89 48 2a             	mov    %ecx,0x2a(%eax)
  101e7c:	89 58 2e             	mov    %ebx,0x2e(%eax)
  101e7f:	8b 4c 24 08          	mov    0x8(%esp),%ecx
  101e83:	8b 5c 24 0c          	mov    0xc(%esp),%ebx
  101e87:	83 c2 01             	add    $0x1,%edx
  101e8a:	89 55 26             	mov    %edx,0x26(%ebp)
  101e8d:	89 48 32             	mov    %ecx,0x32(%eax)
  101e90:	89 58 36             	mov    %ebx,0x36(%eax)
  101e93:	c6 45 25 01          	movb   $0x1,0x25(%ebp)
  101e97:	e9 72 ff ff ff       	jmp    101e0e <_Z8Mb1Parsev+0x1de>
  101e9c:	8d 74 26 00          	lea    0x0(%esi,%eiz,1),%esi
  101ea0:	8b 44 24 2c          	mov    0x2c(%esp),%eax
  101ea4:	8b 00                	mov    (%eax),%eax
  101ea6:	85 c0                	test   %eax,%eax
  101ea8:	0f 84 aa fd ff ff    	je     101c58 <_Z8Mb1Parsev+0x28>
  101eae:	83 ec 0c             	sub    $0xc,%esp
  101eb1:	89 fb                	mov    %edi,%ebx
  101eb3:	8b 44 24 38          	mov    0x38(%esp),%eax
  101eb7:	ff 70 40             	pushl  0x40(%eax)
  101eba:	e8 71 fc ff ff       	call   101b30 <_Z10SerialPutSPKc>
  101ebf:	5e                   	pop    %esi
  101ec0:	ff 74 24 2c          	pushl  0x2c(%esp)
  101ec4:	e8 67 fc ff ff       	call   101b30 <_Z10SerialPutSPKc>
  101ec9:	83 c4 10             	add    $0x10,%esp
  101ecc:	8b 74 24 1c          	mov    0x1c(%esp),%esi
  101ed0:	8b 16                	mov    (%esi),%edx
  101ed2:	8b 1a                	mov    (%edx),%ebx
  101ed4:	85 db                	test   %ebx,%ebx
  101ed6:	0f 84 7c fd ff ff    	je     101c58 <_Z8Mb1Parsev+0x28>
  101edc:	8b 44 24 18          	mov    0x18(%esp),%eax
  101ee0:	8b 4a 58             	mov    0x58(%edx),%ecx
  101ee3:	83 ec 0c             	sub    $0xc,%esp
  101ee6:	89 fb                	mov    %edi,%ebx
  101ee8:	8b 00                	mov    (%eax),%eax
  101eea:	89 88 0c 03 00 00    	mov    %ecx,0x30c(%eax)
  101ef0:	8b 4a 60             	mov    0x60(%edx),%ecx
  101ef3:	c6 80 0b 03 00 00 01 	movb   $0x1,0x30b(%eax)
  101efa:	89 88 10 03 00 00    	mov    %ecx,0x310(%eax)
  101f00:	8b 4a 64             	mov    0x64(%edx),%ecx
  101f03:	89 88 14 03 00 00    	mov    %ecx,0x314(%eax)
  101f09:	8b 4a 68             	mov    0x68(%edx),%ecx
  101f0c:	89 88 18 03 00 00    	mov    %ecx,0x318(%eax)
  101f12:	0f b6 4a 6c          	movzbl 0x6c(%edx),%ecx
  101f16:	88 88 1c 03 00 00    	mov    %cl,0x31c(%eax)
  101f1c:	0f b6 52 6d          	movzbl 0x6d(%edx),%edx
  101f20:	89 90 1d 03 00 00    	mov    %edx,0x31d(%eax)
  101f26:	8d 87 6f b2 fe ff    	lea    -0x14d91(%edi),%eax
  101f2c:	50                   	push   %eax
  101f2d:	e8 fe fb ff ff       	call   101b30 <_Z10SerialPutSPKc>
  101f32:	58                   	pop    %eax
  101f33:	8b 06                	mov    (%esi),%eax
  101f35:	ff 70 58             	pushl  0x58(%eax)
  101f38:	e8 73 fb ff ff       	call   101ab0 <_Z12SerialPutHexm>
  101f3d:	8d 87 84 b2 fe ff    	lea    -0x14d7c(%edi),%eax
  101f43:	89 04 24             	mov    %eax,(%esp)
  101f46:	e8 e5 fb ff ff       	call   101b30 <_Z10SerialPutSPKc>
  101f4b:	8b 06                	mov    (%esi),%eax
  101f4d:	5a                   	pop    %edx
  101f4e:	ff 70 60             	pushl  0x60(%eax)
  101f51:	e8 5a fb ff ff       	call   101ab0 <_Z12SerialPutHexm>
  101f56:	8d 87 95 b2 fe ff    	lea    -0x14d6b(%edi),%eax
  101f5c:	89 04 24             	mov    %eax,(%esp)
  101f5f:	e8 cc fb ff ff       	call   101b30 <_Z10SerialPutSPKc>
  101f64:	8b 06                	mov    (%esi),%eax
  101f66:	59                   	pop    %ecx
  101f67:	ff 70 68             	pushl  0x68(%eax)
  101f6a:	e8 41 fb ff ff       	call   101ab0 <_Z12SerialPutHexm>
  101f6f:	8d 87 ee a5 fe ff    	lea    -0x15a12(%edi),%eax
  101f75:	89 04 24             	mov    %eax,(%esp)
  101f78:	e8 b3 fb ff ff       	call   101b30 <_Z10SerialPutSPKc>
  101f7d:	83 c4 10             	add    $0x10,%esp
  101f80:	83 c4 3c             	add    $0x3c,%esp
  101f83:	5b                   	pop    %ebx
  101f84:	5e                   	pop    %esi
  101f85:	5f                   	pop    %edi
  101f86:	5d                   	pop    %ebp
  101f87:	c3                   	ret    

00101f88 <__x86.get_pc_thunk.di>:
  101f88:	8b 3c 24             	mov    (%esp),%edi
  101f8b:	c3                   	ret    
  101f8c:	66 90                	xchg   %ax,%ax
  101f8e:	66 90                	xchg   %ax,%ax

00101f90 <_Z8Mb2Parsev>:
  101f90:	55                   	push   %ebp
  101f91:	57                   	push   %edi
  101f92:	e8 35 03 00 00       	call   1022cc <__x86.get_pc_thunk.bp>
  101f97:	81 c5 e1 6a 01 00    	add    $0x16ae1,%ebp
  101f9d:	56                   	push   %esi
  101f9e:	53                   	push   %ebx
  101f9f:	83 ec 3c             	sub    $0x3c,%esp
  101fa2:	c7 c0 50 b3 11 00    	mov    $0x11b350,%eax
  101fa8:	8b 00                	mov    (%eax),%eax
  101faa:	85 c0                	test   %eax,%eax
  101fac:	0f 84 ee 02 00 00    	je     1022a0 <.L1>
  101fb2:	8d 78 08             	lea    0x8(%eax),%edi
  101fb5:	c7 c0 a0 90 11 00    	mov    $0x1190a0,%eax
  101fbb:	89 44 24 20          	mov    %eax,0x20(%esp)
  101fbf:	89 44 24 2c          	mov    %eax,0x2c(%esp)
  101fc3:	8d b6 00 00 00 00    	lea    0x0(%esi),%esi
  101fc9:	8d bc 27 00 00 00 00 	lea    0x0(%edi,%eiz,1),%edi
  101fd0:	83 3f 0a             	cmpl   $0xa,(%edi)
  101fd3:	0f 87 c1 00 00 00    	ja     10209a <.L10+0x17>
  101fd9:	8b 07                	mov    (%edi),%eax
  101fdb:	8b 94 85 e0 b2 fe ff 	mov    -0x14d20(%ebp,%eax,4),%edx
  101fe2:	01 ea                	add    %ebp,%edx
  101fe4:	ff e2                	jmp    *%edx
  101fe6:	8d 76 00             	lea    0x0(%esi),%esi
  101fe9:	8d bc 27 00 00 00 00 	lea    0x0(%edi,%eiz,1),%edi

00101ff0 <.L8>:
  101ff0:	8d 85 28 b2 fe ff    	lea    -0x14dd8(%ebp),%eax
  101ff6:	83 ec 0c             	sub    $0xc,%esp
  101ff9:	89 eb                	mov    %ebp,%ebx
  101ffb:	50                   	push   %eax
  101ffc:	e8 2f fb ff ff       	call   101b30 <_Z10SerialPutSPKc>
  102001:	c7 c0 a0 90 11 00    	mov    $0x1190a0,%eax
  102007:	8b 77 0c             	mov    0xc(%edi),%esi
  10200a:	8b 5f 08             	mov    0x8(%edi),%ebx
  10200d:	8b 10                	mov    (%eax),%edx
  10200f:	89 44 24 10          	mov    %eax,0x10(%esp)
  102013:	8b 82 bb 01 00 00    	mov    0x1bb(%edx),%eax
  102019:	89 c1                	mov    %eax,%ecx
  10201b:	c1 e1 05             	shl    $0x5,%ecx
  10201e:	8d 8c 0a b0 01 00 00 	lea    0x1b0(%edx,%ecx,1),%ecx
  102025:	89 59 0f             	mov    %ebx,0xf(%ecx)
  102028:	89 71 13             	mov    %esi,0x13(%ecx)
  10202b:	8d 48 01             	lea    0x1(%eax),%ecx
  10202e:	c1 e0 05             	shl    $0x5,%eax
  102031:	89 8a bb 01 00 00    	mov    %ecx,0x1bb(%edx)
  102037:	8d 84 02 d3 01 00 00 	lea    0x1d3(%edx,%eax,1),%eax
  10203e:	5b                   	pop    %ebx
  10203f:	59                   	pop    %ecx
  102040:	8d 4f 10             	lea    0x10(%edi),%ecx
  102043:	89 eb                	mov    %ebp,%ebx
  102045:	51                   	push   %ecx
  102046:	50                   	push   %eax
  102047:	e8 94 fb ff ff       	call   101be0 <kStrCpy>
  10204c:	31 d2                	xor    %edx,%edx
  10204e:	89 f0                	mov    %esi,%eax
  102050:	0f ac d0 0c          	shrd   $0xc,%edx,%eax
  102054:	c1 ea 0c             	shr    $0xc,%edx
  102057:	89 44 24 18          	mov    %eax,0x18(%esp)
  10205b:	89 c3                	mov    %eax,%ebx
  10205d:	8b 44 24 10          	mov    0x10(%esp),%eax
  102061:	89 54 24 1c          	mov    %edx,0x1c(%esp)
  102065:	83 c4 10             	add    $0x10,%esp
  102068:	8b 08                	mov    (%eax),%ecx
  10206a:	3b 99 ff 02 00 00    	cmp    0x2ff(%ecx),%ebx
  102070:	76 0a                	jbe    10207c <.L8+0x8c>
  102072:	8b 44 24 08          	mov    0x8(%esp),%eax
  102076:	89 81 ff 02 00 00    	mov    %eax,0x2ff(%ecx)
  10207c:	c6 81 ba 01 00 00 01 	movb   $0x1,0x1ba(%ecx)

00102083 <.L10>:
  102083:	8b 47 04             	mov    0x4(%edi),%eax
  102086:	8d 14 38             	lea    (%eax,%edi,1),%edx
  102089:	f7 d8                	neg    %eax
  10208b:	83 e0 07             	and    $0x7,%eax
  10208e:	8d 3c 10             	lea    (%eax,%edx,1),%edi
  102091:	83 3f 0a             	cmpl   $0xa,(%edi)
  102094:	0f 86 3f ff ff ff    	jbe    101fd9 <_Z8Mb2Parsev+0x49>
  10209a:	83 ec 0c             	sub    $0xc,%esp
  10209d:	8d 85 c6 b2 fe ff    	lea    -0x14d3a(%ebp),%eax
  1020a3:	eb 51                	jmp    1020f6 <.L6+0x6>
  1020a5:	8d 74 26 00          	lea    0x0(%esi,%eiz,1),%esi
  1020a9:	8d bc 27 00 00 00 00 	lea    0x0(%edi,%eiz,1),%edi

001020b0 <.L9>:
  1020b0:	8d 85 04 b2 fe ff    	lea    -0x14dfc(%ebp),%eax
  1020b6:	83 ec 0c             	sub    $0xc,%esp
  1020b9:	89 eb                	mov    %ebp,%ebx
  1020bb:	50                   	push   %eax
  1020bc:	e8 6f fa ff ff       	call   101b30 <_Z10SerialPutSPKc>
  1020c1:	c7 c0 a0 90 11 00    	mov    $0x1190a0,%eax
  1020c7:	8b 57 08             	mov    0x8(%edi),%edx
  1020ca:	8b 00                	mov    (%eax),%eax
  1020cc:	89 50 15             	mov    %edx,0x15(%eax)
  1020cf:	8b 57 0c             	mov    0xc(%edi),%edx
  1020d2:	c6 40 14 01          	movb   $0x1,0x14(%eax)
  1020d6:	89 50 19             	mov    %edx,0x19(%eax)
  1020d9:	8b 47 04             	mov    0x4(%edi),%eax
  1020dc:	83 c4 10             	add    $0x10,%esp
  1020df:	8d 14 38             	lea    (%eax,%edi,1),%edx
  1020e2:	f7 d8                	neg    %eax
  1020e4:	83 e0 07             	and    $0x7,%eax
  1020e7:	8d 3c 10             	lea    (%eax,%edx,1),%edi
  1020ea:	e9 e1 fe ff ff       	jmp    101fd0 <_Z8Mb2Parsev+0x40>
  1020ef:	90                   	nop

001020f0 <.L6>:
  1020f0:	8d 47 08             	lea    0x8(%edi),%eax
  1020f3:	83 ec 0c             	sub    $0xc,%esp
  1020f6:	50                   	push   %eax
  1020f7:	89 eb                	mov    %ebp,%ebx
  1020f9:	e8 32 fa ff ff       	call   101b30 <_Z10SerialPutSPKc>
  1020fe:	eb d9                	jmp    1020d9 <.L9+0x29>

00102100 <.L12>:
  102100:	8b 44 24 20          	mov    0x20(%esp),%eax
  102104:	8b 57 08             	mov    0x8(%edi),%edx
  102107:	83 ec 0c             	sub    $0xc,%esp
  10210a:	89 eb                	mov    %ebp,%ebx
  10210c:	8b 00                	mov    (%eax),%eax
  10210e:	89 90 0c 03 00 00    	mov    %edx,0x30c(%eax)
  102114:	8b 57 10             	mov    0x10(%edi),%edx
  102117:	c6 80 0b 03 00 00 01 	movb   $0x1,0x30b(%eax)
  10211e:	89 90 10 03 00 00    	mov    %edx,0x310(%eax)
  102124:	8b 57 14             	mov    0x14(%edi),%edx
  102127:	89 90 14 03 00 00    	mov    %edx,0x314(%eax)
  10212d:	8b 57 18             	mov    0x18(%edi),%edx
  102130:	89 90 18 03 00 00    	mov    %edx,0x318(%eax)
  102136:	0f b6 57 1c          	movzbl 0x1c(%edi),%edx
  10213a:	88 90 1c 03 00 00    	mov    %dl,0x31c(%eax)
  102140:	0f b6 57 1d          	movzbl 0x1d(%edi),%edx
  102144:	89 90 1d 03 00 00    	mov    %edx,0x31d(%eax)
  10214a:	8d 85 6f b2 fe ff    	lea    -0x14d91(%ebp),%eax
  102150:	50                   	push   %eax
  102151:	e8 da f9 ff ff       	call   101b30 <_Z10SerialPutSPKc>
  102156:	58                   	pop    %eax
  102157:	ff 77 08             	pushl  0x8(%edi)
  10215a:	e8 51 f9 ff ff       	call   101ab0 <_Z12SerialPutHexm>
  10215f:	8d 85 a7 b2 fe ff    	lea    -0x14d59(%ebp),%eax
  102165:	89 04 24             	mov    %eax,(%esp)
  102168:	e8 c3 f9 ff ff       	call   101b30 <_Z10SerialPutSPKc>
  10216d:	5a                   	pop    %edx
  10216e:	ff 77 10             	pushl  0x10(%edi)
  102171:	e8 3a f9 ff ff       	call   101ab0 <_Z12SerialPutHexm>
  102176:	8d 85 b6 b2 fe ff    	lea    -0x14d4a(%ebp),%eax
  10217c:	89 04 24             	mov    %eax,(%esp)
  10217f:	e8 ac f9 ff ff       	call   101b30 <_Z10SerialPutSPKc>
  102184:	59                   	pop    %ecx
  102185:	ff 77 18             	pushl  0x18(%edi)
  102188:	e8 23 f9 ff ff       	call   101ab0 <_Z12SerialPutHexm>
  10218d:	8d 85 ee a5 fe ff    	lea    -0x15a12(%ebp),%eax
  102193:	89 04 24             	mov    %eax,(%esp)
  102196:	e9 5e ff ff ff       	jmp    1020f9 <.L6+0x9>
  10219b:	90                   	nop
  10219c:	8d 74 26 00          	lea    0x0(%esi,%eiz,1),%esi

001021a0 <.L7>:
  1021a0:	8d 47 08             	lea    0x8(%edi),%eax
  1021a3:	83 ec 0c             	sub    $0xc,%esp
  1021a6:	89 eb                	mov    %ebp,%ebx
  1021a8:	50                   	push   %eax
  1021a9:	e8 82 f9 ff ff       	call   101b30 <_Z10SerialPutSPKc>
  1021ae:	8d 85 ee a5 fe ff    	lea    -0x15a12(%ebp),%eax
  1021b4:	89 04 24             	mov    %eax,(%esp)
  1021b7:	e9 3d ff ff ff       	jmp    1020f9 <.L6+0x9>
  1021bc:	8d 74 26 00          	lea    0x0(%esi,%eiz,1),%esi

001021c0 <.L11>:
  1021c0:	8d 85 56 b2 fe ff    	lea    -0x14daa(%ebp),%eax
  1021c6:	83 ec 0c             	sub    $0xc,%esp
  1021c9:	89 eb                	mov    %ebp,%ebx
  1021cb:	50                   	push   %eax
  1021cc:	e8 5f f9 ff ff       	call   101b30 <_Z10SerialPutSPKc>
  1021d1:	8b 47 04             	mov    0x4(%edi),%eax
  1021d4:	31 d2                	xor    %edx,%edx
  1021d6:	89 44 24 2c          	mov    %eax,0x2c(%esp)
  1021da:	f7 77 08             	divl   0x8(%edi)
  1021dd:	89 44 24 24          	mov    %eax,0x24(%esp)
  1021e1:	83 c4 10             	add    $0x10,%esp
  1021e4:	85 c0                	test   %eax,%eax
  1021e6:	0f 84 cc 00 00 00    	je     1022b8 <.L1+0x18>
  1021ec:	8b 44 24 2c          	mov    0x2c(%esp),%eax
  1021f0:	8d 77 10             	lea    0x10(%edi),%esi
  1021f3:	31 db                	xor    %ebx,%ebx
  1021f5:	89 6c 24 24          	mov    %ebp,0x24(%esp)
  1021f9:	89 7c 24 28          	mov    %edi,0x28(%esp)
  1021fd:	8b 00                	mov    (%eax),%eax
  1021ff:	89 c1                	mov    %eax,%ecx
  102201:	eb 47                	jmp    10224a <.L11+0x8a>
  102203:	8d b6 00 00 00 00    	lea    0x0(%esi),%esi
  102209:	8d bc 27 00 00 00 00 	lea    0x0(%edi,%eiz,1),%edi
  102210:	8b 06                	mov    (%esi),%eax
  102212:	8b 56 04             	mov    0x4(%esi),%edx
  102215:	89 44 24 08          	mov    %eax,0x8(%esp)
  102219:	89 54 24 0c          	mov    %edx,0xc(%esp)
  10221d:	8b 44 24 08          	mov    0x8(%esp),%eax
  102221:	03 04 24             	add    (%esp),%eax
  102224:	8b 54 24 0c          	mov    0xc(%esp),%edx
  102228:	13 54 24 04          	adc    0x4(%esp),%edx
  10222c:	3b 51 21             	cmp    0x21(%ecx),%edx
  10222f:	72 0d                	jb     10223e <.L11+0x7e>
  102231:	77 05                	ja     102238 <.L11+0x78>
  102233:	3b 41 1d             	cmp    0x1d(%ecx),%eax
  102236:	76 06                	jbe    10223e <.L11+0x7e>
  102238:	89 41 1d             	mov    %eax,0x1d(%ecx)
  10223b:	89 51 21             	mov    %edx,0x21(%ecx)
  10223e:	83 c3 01             	add    $0x1,%ebx
  102241:	83 c6 18             	add    $0x18,%esi
  102244:	39 5c 24 14          	cmp    %ebx,0x14(%esp)
  102248:	74 66                	je     1022b0 <.L1+0x10>
  10224a:	83 7e 10 01          	cmpl   $0x1,0x10(%esi)
  10224e:	8b 46 08             	mov    0x8(%esi),%eax
  102251:	8b 56 0c             	mov    0xc(%esi),%edx
  102254:	89 04 24             	mov    %eax,(%esp)
  102257:	89 54 24 04          	mov    %edx,0x4(%esp)
  10225b:	75 b3                	jne    102210 <.L11+0x50>
  10225d:	8b 41 26             	mov    0x26(%ecx),%eax
  102260:	8b 3e                	mov    (%esi),%edi
  102262:	8b 6e 04             	mov    0x4(%esi),%ebp
  102265:	89 c2                	mov    %eax,%edx
  102267:	89 44 24 18          	mov    %eax,0x18(%esp)
  10226b:	89 7c 24 08          	mov    %edi,0x8(%esp)
  10226f:	c1 e2 04             	shl    $0x4,%edx
  102272:	89 6c 24 0c          	mov    %ebp,0xc(%esp)
  102276:	89 d0                	mov    %edx,%eax
  102278:	8b 54 24 18          	mov    0x18(%esp),%edx
  10227c:	01 c8                	add    %ecx,%eax
  10227e:	89 78 2a             	mov    %edi,0x2a(%eax)
  102281:	89 68 2e             	mov    %ebp,0x2e(%eax)
  102284:	8b 3c 24             	mov    (%esp),%edi
  102287:	8b 6c 24 04          	mov    0x4(%esp),%ebp
  10228b:	83 c2 01             	add    $0x1,%edx
  10228e:	89 51 26             	mov    %edx,0x26(%ecx)
  102291:	89 78 32             	mov    %edi,0x32(%eax)
  102294:	89 68 36             	mov    %ebp,0x36(%eax)
  102297:	c6 41 25 01          	movb   $0x1,0x25(%ecx)
  10229b:	eb 80                	jmp    10221d <.L11+0x5d>
  10229d:	8d 76 00             	lea    0x0(%esi),%esi

001022a0 <.L1>:
  1022a0:	83 c4 3c             	add    $0x3c,%esp
  1022a3:	5b                   	pop    %ebx
  1022a4:	5e                   	pop    %esi
  1022a5:	5f                   	pop    %edi
  1022a6:	5d                   	pop    %ebp
  1022a7:	c3                   	ret    
  1022a8:	90                   	nop
  1022a9:	8d b4 26 00 00 00 00 	lea    0x0(%esi,%eiz,1),%esi
  1022b0:	8b 6c 24 24          	mov    0x24(%esp),%ebp
  1022b4:	8b 7c 24 28          	mov    0x28(%esp),%edi
  1022b8:	8b 44 24 1c          	mov    0x1c(%esp),%eax
  1022bc:	8d 14 38             	lea    (%eax,%edi,1),%edx
  1022bf:	f7 d8                	neg    %eax
  1022c1:	83 e0 07             	and    $0x7,%eax
  1022c4:	8d 3c 10             	lea    (%eax,%edx,1),%edi
  1022c7:	e9 04 fd ff ff       	jmp    101fd0 <_Z8Mb2Parsev+0x40>

001022cc <__x86.get_pc_thunk.bp>:
  1022cc:	8b 2c 24             	mov    (%esp),%ebp
  1022cf:	c3                   	ret    

001022d0 <outb>:
  1022d0:	55                   	push   %ebp
  1022d1:	89 e5                	mov    %esp,%ebp
  1022d3:	8b 55 08             	mov    0x8(%ebp),%edx
  1022d6:	8b 45 0c             	mov    0xc(%ebp),%eax
  1022d9:	ee                   	out    %al,(%dx)
  1022da:	5d                   	pop    %ebp
  1022db:	c3                   	ret    
