
/home/adam/workspace/century-os/bin/rpi2b/boot/kernel.elf:     file format elf32-littlearm


Disassembly of section .text:

80000000 <_Z8BusyWaitj>:
80000000:	e92d4370 	push	{r4, r5, r6, r8, r9, lr}
80000004:	e24dd008 	sub	sp, sp, #8
80000008:	e1a06000 	mov	r6, r0
8000000c:	eb000f71 	bl	80003dd8 <SysTimerCount>
80000010:	e1cd00f0 	strd	r0, [sp]
80000014:	e1cd40d0 	ldrd	r4, [sp]
80000018:	e1cd20d0 	ldrd	r2, [sp]
8000001c:	e1923003 	orrs	r3, r2, r3
80000020:	0a000005 	beq	8000003c <_Z8BusyWaitj+0x3c>
80000024:	e0948006 	adds	r8, r4, r6
80000028:	e2a59000 	adc	r9, r5, #0
8000002c:	eb000f69 	bl	80003dd8 <SysTimerCount>
80000030:	e1510009 	cmp	r1, r9
80000034:	01500008 	cmpeq	r0, r8
80000038:	3afffffb 	bcc	8000002c <_Z8BusyWaitj+0x2c>
8000003c:	e28dd008 	add	sp, sp, #8
80000040:	e8bd8370 	pop	{r4, r5, r6, r8, r9, pc}

80000044 <DataAbortHandler>:
80000044:	e92d4010 	push	{r4, lr}
80000048:	e1a04000 	mov	r4, r0
8000004c:	e3050000 	movw	r0, #20480	; 0x5000
80000050:	e3480000 	movt	r0, #32768	; 0x8000
80000054:	eb001027 	bl	800040f8 <_Z7kprintfPKcz>
80000058:	e1a00004 	mov	r0, r4
8000005c:	eb000569 	bl	80001608 <_Z12IsrDumpStateP9isrRegs_t>
80000060:	eb0010af 	bl	80004324 <Halt>

80000064 <DataAbortTarget>:
80000064:	e24ee008 	sub	lr, lr, #8
80000068:	f96d0513 	srsdb	sp!, #19
8000006c:	f10e01d3 	cpsid	aif,#19
80000070:	e92d1fff 	push	{r0, r1, r2, r3, r4, r5, r6, r7, r8, r9, sl, fp, ip}
80000074:	e3a00017 	mov	r0, #23
80000078:	e52d0004 	push	{r0}		; (str r0, [sp, #-4]!)
8000007c:	e52dd004 	push	{sp}		; (str sp, [sp, #-4]!)
80000080:	e52de004 	push	{lr}		; (str lr, [sp, #-4]!)
80000084:	e24dd008 	sub	sp, sp, #8
80000088:	e8cd6000 	stmia	sp, {sp, lr}^
8000008c:	e1a0000d 	mov	r0, sp
80000090:	ebffffeb 	bl	80000044 <DataAbortHandler>
80000094:	e8dd6000 	ldm	sp, {sp, lr}^
80000098:	e28dd008 	add	sp, sp, #8
8000009c:	e49de004 	pop	{lr}		; (ldr lr, [sp], #4)
800000a0:	e28dd004 	add	sp, sp, #4
800000a4:	e49d0004 	pop	{r0}		; (ldr r0, [sp], #4)
800000a8:	e8bd1fff 	pop	{r0, r1, r2, r3, r4, r5, r6, r7, r8, r9, sl, fp, ip}
800000ac:	f8bd0a00 	rfeia	sp!

800000b0 <DisableInterrupts>:
800000b0:	e52d1004 	push	{r1}		; (str r1, [sp, #-4]!)
800000b4:	e10f1000 	mrs	r1, CPSR
800000b8:	e1a00001 	mov	r0, r1
800000bc:	e2000d07 	and	r0, r0, #448	; 0x1c0
800000c0:	e3811d07 	orr	r1, r1, #448	; 0x1c0
800000c4:	e129f001 	msr	CPSR_fc, r1
800000c8:	e49d1004 	pop	{r1}		; (ldr r1, [sp], #4)
800000cc:	e1a0f00e 	mov	pc, lr

800000d0 <EnableInterrupts>:
800000d0:	e10f0000 	mrs	r0, CPSR
800000d4:	e3c00d07 	bic	r0, r0, #448	; 0x1c0
800000d8:	e129f000 	msr	CPSR_fc, r0
800000dc:	e1a0f00e 	mov	pc, lr

800000e0 <EnterSystemMode>:
800000e0:	e1a0000d 	mov	r0, sp
800000e4:	e1a0100e 	mov	r1, lr
800000e8:	e10f2000 	mrs	r2, CPSR
800000ec:	e3c2201f 	bic	r2, r2, #31
800000f0:	f102001f 	cps	#31
800000f4:	e1a0d000 	mov	sp, r0
800000f8:	e10f0000 	mrs	r0, CPSR
800000fc:	e200001f 	and	r0, r0, #31
80000100:	e1800002 	orr	r0, r0, r2
80000104:	e129f000 	msr	CPSR_fc, r0
80000108:	e1a0f001 	mov	pc, r1

8000010c <FIQHandler>:
8000010c:	ea000573 	b	800016e0 <IsrHandler>

80000110 <FIQTarget>:
80000110:	e24ee004 	sub	lr, lr, #4
80000114:	f96d0513 	srsdb	sp!, #19
80000118:	f10e01d3 	cpsid	aif,#19
8000011c:	e92d1fff 	push	{r0, r1, r2, r3, r4, r5, r6, r7, r8, r9, sl, fp, ip}
80000120:	e3a00011 	mov	r0, #17
80000124:	e52d0004 	push	{r0}		; (str r0, [sp, #-4]!)
80000128:	e52dd004 	push	{sp}		; (str sp, [sp, #-4]!)
8000012c:	e52de004 	push	{lr}		; (str lr, [sp, #-4]!)
80000130:	e24dd008 	sub	sp, sp, #8
80000134:	e8cd6000 	stmia	sp, {sp, lr}^
80000138:	e1a0000d 	mov	r0, sp
8000013c:	ebfffff2 	bl	8000010c <FIQHandler>
80000140:	e8dd6000 	ldm	sp, {sp, lr}^
80000144:	e28dd008 	add	sp, sp, #8
80000148:	e49de004 	pop	{lr}		; (ldr lr, [sp], #4)
8000014c:	e28dd004 	add	sp, sp, #4
80000150:	e49d0004 	pop	{r0}		; (ldr r0, [sp], #4)
80000154:	e8bd1fff 	pop	{r0, r1, r2, r3, r4, r5, r6, r7, r8, r9, sl, fp, ip}
80000158:	f8bd0a00 	rfeia	sp!

8000015c <_Z16FrameBufferClearv>:
8000015c:	e92d4010 	push	{r4, lr}
80000160:	e3084218 	movw	r4, #33304	; 0x8218
80000164:	e3484000 	movt	r4, #32768	; 0x8000
80000168:	e5943000 	ldr	r3, [r4]
8000016c:	e5932314 	ldr	r2, [r3, #788]	; 0x314
80000170:	e2831e32 	add	r1, r3, #800	; 0x320
80000174:	e593c318 	ldr	ip, [r3, #792]	; 0x318
80000178:	e2811001 	add	r1, r1, #1
8000017c:	e593030c 	ldr	r0, [r3, #780]	; 0x30c
80000180:	e1d110b0 	ldrh	r1, [r1]
80000184:	e002029c 	mul	r2, ip, r2
80000188:	eb000fbf 	bl	8000408c <kMemSetW>
8000018c:	e5942000 	ldr	r2, [r4]
80000190:	e3a03000 	mov	r3, #0
80000194:	e5c23325 	strb	r3, [r2, #805]	; 0x325
80000198:	e2820fc9 	add	r0, r2, #804	; 0x324
8000019c:	e5c23326 	strb	r3, [r2, #806]	; 0x326
800001a0:	e1a01000 	mov	r1, r0
800001a4:	e5c23327 	strb	r3, [r2, #807]	; 0x327
800001a8:	e5c13004 	strb	r3, [r1, #4]
800001ac:	e8bd8010 	pop	{r4, pc}

800001b0 <_Z19FrameBufferDrawCharc>:
800001b0:	e3083218 	movw	r3, #33304	; 0x8218
800001b4:	e3002325 	movw	r2, #805	; 0x325
800001b8:	e3483000 	movt	r3, #32768	; 0x8000
800001bc:	e92d41f0 	push	{r4, r5, r6, r7, r8, lr}
800001c0:	e5937000 	ldr	r7, [r3]
800001c4:	e19730b2 	ldrh	r3, [r7, r2]
800001c8:	e353002d 	cmp	r3, #45	; 0x2d
800001cc:	88bd81f0 	pophi	{r4, r5, r6, r7, r8, pc}
800001d0:	e3100080 	tst	r0, #128	; 0x80
800001d4:	1a00002a 	bne	80000284 <_Z19FrameBufferDrawCharc+0xd4>
800001d8:	e350000a 	cmp	r0, #10
800001dc:	0a00003c 	beq	800002d4 <_Z19FrameBufferDrawCharc+0x124>
800001e0:	e597c314 	ldr	ip, [r7, #788]	; 0x314
800001e4:	e300e327 	movw	lr, #807	; 0x327
800001e8:	e087800e 	add	r8, r7, lr
800001ec:	e3500009 	cmp	r0, #9
800001f0:	11a06200 	lslne	r6, r0, #4
800001f4:	e1d810b0 	ldrh	r1, [r8]
800001f8:	0a00002a 	beq	800002a8 <_Z19FrameBufferDrawCharc+0xf8>
800001fc:	e1a03203 	lsl	r3, r3, #4
80000200:	e3052ba4 	movw	r2, #23460	; 0x5ba4
80000204:	e1a01181 	lsl	r1, r1, #3
80000208:	e2874e32 	add	r4, r7, #800	; 0x320
8000020c:	e023139c 	mla	r3, ip, r3, r1
80000210:	e3482000 	movt	r2, #32768	; 0x8000
80000214:	e287ee32 	add	lr, r7, #800	; 0x320
80000218:	e597c30c 	ldr	ip, [r7, #780]	; 0x30c
8000021c:	e2844001 	add	r4, r4, #1
80000220:	e0866002 	add	r6, r6, r2
80000224:	e28ee003 	add	lr, lr, #3
80000228:	e08cc083 	add	ip, ip, r3, lsl #1
8000022c:	e2465001 	sub	r5, r6, #1
80000230:	e286600f 	add	r6, r6, #15
80000234:	e5f52001 	ldrb	r2, [r5, #1]!
80000238:	e1a0300c 	mov	r3, ip
8000023c:	e28c1010 	add	r1, ip, #16
80000240:	e3120001 	tst	r2, #1
80000244:	e2833002 	add	r3, r3, #2
80000248:	e1a020a2 	lsr	r2, r2, #1
8000024c:	11de00b0 	ldrhne	r0, [lr]
80000250:	01d400b0 	ldrheq	r0, [r4]
80000254:	e14300b2 	strh	r0, [r3, #-2]
80000258:	e1510003 	cmp	r1, r3
8000025c:	1afffff7 	bne	80000240 <_Z19FrameBufferDrawCharc+0x90>
80000260:	e5973314 	ldr	r3, [r7, #788]	; 0x314
80000264:	e1560005 	cmp	r6, r5
80000268:	e08cc083 	add	ip, ip, r3, lsl #1
8000026c:	1afffff0 	bne	80000234 <_Z19FrameBufferDrawCharc+0x84>
80000270:	e1d830b0 	ldrh	r3, [r8]
80000274:	e3002327 	movw	r2, #807	; 0x327
80000278:	e2833001 	add	r3, r3, #1
8000027c:	e18730b2 	strh	r3, [r7, r2]
80000280:	e8bd81f0 	pop	{r4, r5, r6, r7, r8, pc}
80000284:	e20000c0 	and	r0, r0, #192	; 0xc0
80000288:	e35000c0 	cmp	r0, #192	; 0xc0
8000028c:	18bd81f0 	popne	{r4, r5, r6, r7, r8, pc}
80000290:	e597c314 	ldr	ip, [r7, #788]	; 0x314
80000294:	e2878fc9 	add	r8, r7, #804	; 0x324
80000298:	e2888003 	add	r8, r8, #3
8000029c:	e3a06e3f 	mov	r6, #1008	; 0x3f0
800002a0:	e1d810b0 	ldrh	r1, [r8]
800002a4:	eaffffd4 	b	800001fc <_Z19FrameBufferDrawCharc+0x4c>
800002a8:	e3c11007 	bic	r1, r1, #7
800002ac:	e2811008 	add	r1, r1, #8
800002b0:	e6ff1071 	uxth	r1, r1
800002b4:	e15101ac 	cmp	r1, ip, lsr #3
800002b8:	918710be 	strhls	r1, [r7, lr]
800002bc:	83a01000 	movhi	r1, #0
800002c0:	85c71327 	strbhi	r1, [r7, #807]	; 0x327
800002c4:	82833001 	addhi	r3, r3, #1
800002c8:	85c81001 	strbhi	r1, [r8, #1]
800002cc:	818730b2 	strhhi	r3, [r7, r2]
800002d0:	e8bd81f0 	pop	{r4, r5, r6, r7, r8, pc}
800002d4:	e3a00000 	mov	r0, #0
800002d8:	e2833001 	add	r3, r3, #1
800002dc:	e5c70327 	strb	r0, [r7, #807]	; 0x327
800002e0:	e5c70328 	strb	r0, [r7, #808]	; 0x328
800002e4:	e18730b2 	strh	r3, [r7, r2]
800002e8:	e8bd81f0 	pop	{r4, r5, r6, r7, r8, pc}

800002ec <_Z19FrameBufferParseRGBPKc>:
800002ec:	e2503000 	subs	r3, r0, #0
800002f0:	0a000067 	beq	80000494 <_Z19FrameBufferParseRGBPKc+0x1a8>
800002f4:	e92d4010 	push	{r4, lr}
800002f8:	e1a04003 	mov	r4, r3
800002fc:	eb000f72 	bl	800040cc <kStrLen>
80000300:	e3500007 	cmp	r0, #7
80000304:	0a000001 	beq	80000310 <_Z19FrameBufferParseRGBPKc+0x24>
80000308:	e3a00000 	mov	r0, #0
8000030c:	e8bd8010 	pop	{r4, pc}
80000310:	e5d43000 	ldrb	r3, [r4]
80000314:	e3530023 	cmp	r3, #35	; 0x23
80000318:	1afffffa 	bne	80000308 <_Z19FrameBufferParseRGBPKc+0x1c>
8000031c:	e5d42001 	ldrb	r2, [r4, #1]
80000320:	e2423030 	sub	r3, r2, #48	; 0x30
80000324:	e3530009 	cmp	r3, #9
80000328:	9202200f 	andls	r2, r2, #15
8000032c:	91a02202 	lslls	r2, r2, #4
80000330:	9a000008 	bls	80000358 <_Z19FrameBufferParseRGBPKc+0x6c>
80000334:	e2423061 	sub	r3, r2, #97	; 0x61
80000338:	e3530005 	cmp	r3, #5
8000033c:	9a00005a 	bls	800004ac <_Z19FrameBufferParseRGBPKc+0x1c0>
80000340:	e2423041 	sub	r3, r2, #65	; 0x41
80000344:	e3530005 	cmp	r3, #5
80000348:	92422037 	subls	r2, r2, #55	; 0x37
8000034c:	83a02000 	movhi	r2, #0
80000350:	96ff2072 	uxthls	r2, r2
80000354:	91a02202 	lslls	r2, r2, #4
80000358:	e5d43002 	ldrb	r3, [r4, #2]
8000035c:	e2431030 	sub	r1, r3, #48	; 0x30
80000360:	e3510009 	cmp	r1, #9
80000364:	9203300f 	andls	r3, r3, #15
80000368:	91822003 	orrls	r2, r2, r3
8000036c:	9a000007 	bls	80000390 <_Z19FrameBufferParseRGBPKc+0xa4>
80000370:	e2431061 	sub	r1, r3, #97	; 0x61
80000374:	e3510005 	cmp	r1, #5
80000378:	9a000053 	bls	800004cc <_Z19FrameBufferParseRGBPKc+0x1e0>
8000037c:	e2431041 	sub	r1, r3, #65	; 0x41
80000380:	e3510005 	cmp	r1, #5
80000384:	92433037 	subls	r3, r3, #55	; 0x37
80000388:	96ff3073 	uxthls	r3, r3
8000038c:	91822003 	orrls	r2, r2, r3
80000390:	e5d43003 	ldrb	r3, [r4, #3]
80000394:	e2431030 	sub	r1, r3, #48	; 0x30
80000398:	e3510009 	cmp	r1, #9
8000039c:	9203300f 	andls	r3, r3, #15
800003a0:	91a03203 	lslls	r3, r3, #4
800003a4:	9a000008 	bls	800003cc <_Z19FrameBufferParseRGBPKc+0xe0>
800003a8:	e2431061 	sub	r1, r3, #97	; 0x61
800003ac:	e3510005 	cmp	r1, #5
800003b0:	9a00004d 	bls	800004ec <_Z19FrameBufferParseRGBPKc+0x200>
800003b4:	e2431041 	sub	r1, r3, #65	; 0x41
800003b8:	e3510005 	cmp	r1, #5
800003bc:	92433037 	subls	r3, r3, #55	; 0x37
800003c0:	83a03000 	movhi	r3, #0
800003c4:	96ff3073 	uxthls	r3, r3
800003c8:	91a03203 	lslls	r3, r3, #4
800003cc:	e5d41004 	ldrb	r1, [r4, #4]
800003d0:	e2410030 	sub	r0, r1, #48	; 0x30
800003d4:	e3500009 	cmp	r0, #9
800003d8:	9201100f 	andls	r1, r1, #15
800003dc:	91833001 	orrls	r3, r3, r1
800003e0:	9a000007 	bls	80000404 <_Z19FrameBufferParseRGBPKc+0x118>
800003e4:	e2410061 	sub	r0, r1, #97	; 0x61
800003e8:	e3500005 	cmp	r0, #5
800003ec:	9a00003a 	bls	800004dc <_Z19FrameBufferParseRGBPKc+0x1f0>
800003f0:	e2410041 	sub	r0, r1, #65	; 0x41
800003f4:	e3500005 	cmp	r0, #5
800003f8:	92411037 	subls	r1, r1, #55	; 0x37
800003fc:	96ff1071 	uxthls	r1, r1
80000400:	91833001 	orrls	r3, r3, r1
80000404:	e5d41005 	ldrb	r1, [r4, #5]
80000408:	e2410030 	sub	r0, r1, #48	; 0x30
8000040c:	e3500009 	cmp	r0, #9
80000410:	9201100f 	andls	r1, r1, #15
80000414:	91a01201 	lslls	r1, r1, #4
80000418:	9a000008 	bls	80000440 <_Z19FrameBufferParseRGBPKc+0x154>
8000041c:	e2410061 	sub	r0, r1, #97	; 0x61
80000420:	e3500005 	cmp	r0, #5
80000424:	9a000024 	bls	800004bc <_Z19FrameBufferParseRGBPKc+0x1d0>
80000428:	e2410041 	sub	r0, r1, #65	; 0x41
8000042c:	e3500005 	cmp	r0, #5
80000430:	92411037 	subls	r1, r1, #55	; 0x37
80000434:	83a01000 	movhi	r1, #0
80000438:	96ff1071 	uxthls	r1, r1
8000043c:	91a01201 	lslls	r1, r1, #4
80000440:	e5d40006 	ldrb	r0, [r4, #6]
80000444:	e240c030 	sub	ip, r0, #48	; 0x30
80000448:	e35c0009 	cmp	ip, #9
8000044c:	9200000f 	andls	r0, r0, #15
80000450:	91811000 	orrls	r1, r1, r0
80000454:	9a000007 	bls	80000478 <_Z19FrameBufferParseRGBPKc+0x18c>
80000458:	e240c061 	sub	ip, r0, #97	; 0x61
8000045c:	e35c0005 	cmp	ip, #5
80000460:	9a00000d 	bls	8000049c <_Z19FrameBufferParseRGBPKc+0x1b0>
80000464:	e240c041 	sub	ip, r0, #65	; 0x41
80000468:	e35c0005 	cmp	ip, #5
8000046c:	92400037 	subls	r0, r0, #55	; 0x37
80000470:	96ff0070 	uxthls	r0, r0
80000474:	91811000 	orrls	r1, r1, r0
80000478:	e1a03143 	asr	r3, r3, #2
8000047c:	e1a021c2 	asr	r2, r2, #3
80000480:	e1a00283 	lsl	r0, r3, #5
80000484:	e1800582 	orr	r0, r0, r2, lsl #11
80000488:	e18001c1 	orr	r0, r0, r1, asr #3
8000048c:	e6ff0070 	uxth	r0, r0
80000490:	e8bd8010 	pop	{r4, pc}
80000494:	e3a00000 	mov	r0, #0
80000498:	e12fff1e 	bx	lr
8000049c:	e2400057 	sub	r0, r0, #87	; 0x57
800004a0:	e6ff0070 	uxth	r0, r0
800004a4:	e1811000 	orr	r1, r1, r0
800004a8:	eafffff2 	b	80000478 <_Z19FrameBufferParseRGBPKc+0x18c>
800004ac:	e2422057 	sub	r2, r2, #87	; 0x57
800004b0:	e6ff2072 	uxth	r2, r2
800004b4:	e1a02202 	lsl	r2, r2, #4
800004b8:	eaffffa6 	b	80000358 <_Z19FrameBufferParseRGBPKc+0x6c>
800004bc:	e2411057 	sub	r1, r1, #87	; 0x57
800004c0:	e6ff0071 	uxth	r0, r1
800004c4:	e1a01200 	lsl	r1, r0, #4
800004c8:	eaffffdc 	b	80000440 <_Z19FrameBufferParseRGBPKc+0x154>
800004cc:	e2433057 	sub	r3, r3, #87	; 0x57
800004d0:	e6ff3073 	uxth	r3, r3
800004d4:	e1822003 	orr	r2, r2, r3
800004d8:	eaffffac 	b	80000390 <_Z19FrameBufferParseRGBPKc+0xa4>
800004dc:	e2411057 	sub	r1, r1, #87	; 0x57
800004e0:	e6ff1071 	uxth	r1, r1
800004e4:	e1833001 	orr	r3, r3, r1
800004e8:	eaffffc5 	b	80000404 <_Z19FrameBufferParseRGBPKc+0x118>
800004ec:	e2433057 	sub	r3, r3, #87	; 0x57
800004f0:	e6ff3073 	uxth	r3, r3
800004f4:	e1a03203 	lsl	r3, r3, #4
800004f8:	eaffffb3 	b	800003cc <_Z19FrameBufferParseRGBPKc+0xe0>

800004fc <_Z15FrameBufferPutSPKc>:
800004fc:	e92d4010 	push	{r4, lr}
80000500:	e1a04000 	mov	r4, r0
80000504:	e5d00000 	ldrb	r0, [r0]
80000508:	e3500000 	cmp	r0, #0
8000050c:	08bd8010 	popeq	{r4, pc}
80000510:	ebffff26 	bl	800001b0 <_Z19FrameBufferDrawCharc>
80000514:	e5f40001 	ldrb	r0, [r4, #1]!
80000518:	e3500000 	cmp	r0, #0
8000051c:	1afffffb 	bne	80000510 <_Z15FrameBufferPutSPKc+0x14>
80000520:	e8bd8010 	pop	{r4, pc}

80000524 <GetCBAR>:
80000524:	ee9f0f10 	mrc	15, 4, r0, cr15, cr0, {0}
80000528:	e1a0f00e 	mov	pc, lr

8000052c <GetMode>:
8000052c:	e10f0000 	mrs	r0, CPSR
80000530:	e200001f 	and	r0, r0, #31
80000534:	e1a0f00e 	mov	pc, lr

80000538 <GetTTBR0>:
80000538:	ee120f10 	mrc	15, 0, r0, cr2, cr0, {0}
8000053c:	e1a0f00e 	mov	pc, lr

80000540 <_Z13HeapAddToListP13OrderedList_t>:
80000540:	e92d4070 	push	{r4, r5, r6, lr}
80000544:	e2504000 	subs	r4, r0, #0
80000548:	0a000078 	beq	80000730 <_Z13HeapAddToListP13OrderedList_t+0x1f0>
8000054c:	e5940000 	ldr	r0, [r4]
80000550:	e3051034 	movw	r1, #20532	; 0x5034
80000554:	e3481000 	movt	r1, #32768	; 0x8000
80000558:	eb000375 	bl	80001334 <_Z15HeapValidateHdrP13KHeapHeader_tPKc>
8000055c:	e5942004 	ldr	r2, [r4, #4]
80000560:	e3083004 	movw	r3, #32772	; 0x8004
80000564:	e3483000 	movt	r3, #32768	; 0x8000
80000568:	e5931000 	ldr	r1, [r3]
8000056c:	e5913000 	ldr	r3, [r1]
80000570:	e3530000 	cmp	r3, #0
80000574:	0a00005a 	beq	800006e4 <_Z13HeapAddToListP13OrderedList_t+0x1a4>
80000578:	e5915004 	ldr	r5, [r1, #4]
8000057c:	e3520c02 	cmp	r2, #512	; 0x200
80000580:	e591e008 	ldr	lr, [r1, #8]
80000584:	e591c00c 	ldr	ip, [r1, #12]
80000588:	e5910010 	ldr	r0, [r1, #16]
8000058c:	3a00000d 	bcc	800005c8 <_Z13HeapAddToListP13OrderedList_t+0x88>
80000590:	e3550000 	cmp	r5, #0
80000594:	11a03005 	movne	r3, r5
80000598:	e3520b01 	cmp	r2, #1024	; 0x400
8000059c:	3a000009 	bcc	800005c8 <_Z13HeapAddToListP13OrderedList_t+0x88>
800005a0:	e35e0000 	cmp	lr, #0
800005a4:	11a0300e 	movne	r3, lr
800005a8:	e3520a01 	cmp	r2, #4096	; 0x1000
800005ac:	3a000005 	bcc	800005c8 <_Z13HeapAddToListP13OrderedList_t+0x88>
800005b0:	e35c0000 	cmp	ip, #0
800005b4:	11a0300c 	movne	r3, ip
800005b8:	e3520901 	cmp	r2, #16384	; 0x4000
800005bc:	3a000001 	bcc	800005c8 <_Z13HeapAddToListP13OrderedList_t+0x88>
800005c0:	e3500000 	cmp	r0, #0
800005c4:	11a03000 	movne	r3, r0
800005c8:	e5936004 	ldr	r6, [r3, #4]
800005cc:	e1560002 	cmp	r6, r2
800005d0:	3a00003e 	bcc	800006d0 <_Z13HeapAddToListP13OrderedList_t+0x190>
800005d4:	e5936008 	ldr	r6, [r3, #8]
800005d8:	e584300c 	str	r3, [r4, #12]
800005dc:	e5846008 	str	r6, [r4, #8]
800005e0:	e5834008 	str	r4, [r3, #8]
800005e4:	e5943008 	ldr	r3, [r4, #8]
800005e8:	e3530000 	cmp	r3, #0
800005ec:	1583400c 	strne	r4, [r3, #12]
800005f0:	e3520c02 	cmp	r2, #512	; 0x200
800005f4:	23550000 	cmpcs	r5, #0
800005f8:	05814004 	streq	r4, [r1, #4]
800005fc:	01a05004 	moveq	r5, r4
80000600:	e3520b01 	cmp	r2, #1024	; 0x400
80000604:	235e0000 	cmpcs	lr, #0
80000608:	05814008 	streq	r4, [r1, #8]
8000060c:	01a0e004 	moveq	lr, r4
80000610:	e3520a01 	cmp	r2, #4096	; 0x1000
80000614:	235c0000 	cmpcs	ip, #0
80000618:	0581400c 	streq	r4, [r1, #12]
8000061c:	01a0c004 	moveq	ip, r4
80000620:	e3520901 	cmp	r2, #16384	; 0x4000
80000624:	23500000 	cmpcs	r0, #0
80000628:	05814010 	streq	r4, [r1, #16]
8000062c:	01a00004 	moveq	r0, r4
80000630:	e3550000 	cmp	r5, #0
80000634:	0a000005 	beq	80000650 <_Z13HeapAddToListP13OrderedList_t+0x110>
80000638:	e5953008 	ldr	r3, [r5, #8]
8000063c:	e3530000 	cmp	r3, #0
80000640:	0a000002 	beq	80000650 <_Z13HeapAddToListP13OrderedList_t+0x110>
80000644:	e5932004 	ldr	r2, [r3, #4]
80000648:	e3520c02 	cmp	r2, #512	; 0x200
8000064c:	25813004 	strcs	r3, [r1, #4]
80000650:	e35e0000 	cmp	lr, #0
80000654:	0a000005 	beq	80000670 <_Z13HeapAddToListP13OrderedList_t+0x130>
80000658:	e59e3008 	ldr	r3, [lr, #8]
8000065c:	e3530000 	cmp	r3, #0
80000660:	0a000002 	beq	80000670 <_Z13HeapAddToListP13OrderedList_t+0x130>
80000664:	e5932004 	ldr	r2, [r3, #4]
80000668:	e3520b01 	cmp	r2, #1024	; 0x400
8000066c:	25813008 	strcs	r3, [r1, #8]
80000670:	e35c0000 	cmp	ip, #0
80000674:	0a000005 	beq	80000690 <_Z13HeapAddToListP13OrderedList_t+0x150>
80000678:	e59c3008 	ldr	r3, [ip, #8]
8000067c:	e3530000 	cmp	r3, #0
80000680:	0a000002 	beq	80000690 <_Z13HeapAddToListP13OrderedList_t+0x150>
80000684:	e5932004 	ldr	r2, [r3, #4]
80000688:	e3520a01 	cmp	r2, #4096	; 0x1000
8000068c:	2581300c 	strcs	r3, [r1, #12]
80000690:	e3500000 	cmp	r0, #0
80000694:	0a000005 	beq	800006b0 <_Z13HeapAddToListP13OrderedList_t+0x170>
80000698:	e5903008 	ldr	r3, [r0, #8]
8000069c:	e3530000 	cmp	r3, #0
800006a0:	0a000002 	beq	800006b0 <_Z13HeapAddToListP13OrderedList_t+0x170>
800006a4:	e5932004 	ldr	r2, [r3, #4]
800006a8:	e3520901 	cmp	r2, #16384	; 0x4000
800006ac:	25813010 	strcs	r3, [r1, #16]
800006b0:	e3050034 	movw	r0, #20532	; 0x5034
800006b4:	e3480000 	movt	r0, #32768	; 0x8000
800006b8:	eb00035e 	bl	80001438 <_Z15HeapValidatePtrPKc>
800006bc:	e5940000 	ldr	r0, [r4]
800006c0:	e3051044 	movw	r1, #20548	; 0x5044
800006c4:	e3481000 	movt	r1, #32768	; 0x8000
800006c8:	e8bd4070 	pop	{r4, r5, r6, lr}
800006cc:	ea000318 	b	80001334 <_Z15HeapValidateHdrP13KHeapHeader_tPKc>
800006d0:	e593600c 	ldr	r6, [r3, #12]
800006d4:	e3560000 	cmp	r6, #0
800006d8:	0a000010 	beq	80000720 <_Z13HeapAddToListP13OrderedList_t+0x1e0>
800006dc:	e1a03006 	mov	r3, r6
800006e0:	eaffffb8 	b	800005c8 <_Z13HeapAddToListP13OrderedList_t+0x88>
800006e4:	e5814000 	str	r4, [r1]
800006e8:	e3520c02 	cmp	r2, #512	; 0x200
800006ec:	e5843008 	str	r3, [r4, #8]
800006f0:	e584300c 	str	r3, [r4, #12]
800006f4:	3affffed 	bcc	800006b0 <_Z13HeapAddToListP13OrderedList_t+0x170>
800006f8:	e5814004 	str	r4, [r1, #4]
800006fc:	e3520b01 	cmp	r2, #1024	; 0x400
80000700:	3affffea 	bcc	800006b0 <_Z13HeapAddToListP13OrderedList_t+0x170>
80000704:	e5814008 	str	r4, [r1, #8]
80000708:	e3520a01 	cmp	r2, #4096	; 0x1000
8000070c:	3affffe7 	bcc	800006b0 <_Z13HeapAddToListP13OrderedList_t+0x170>
80000710:	e581400c 	str	r4, [r1, #12]
80000714:	e3520901 	cmp	r2, #16384	; 0x4000
80000718:	25814010 	strcs	r4, [r1, #16]
8000071c:	eaffffe3 	b	800006b0 <_Z13HeapAddToListP13OrderedList_t+0x170>
80000720:	e583400c 	str	r4, [r3, #12]
80000724:	e5843008 	str	r3, [r4, #8]
80000728:	e584600c 	str	r6, [r4, #12]
8000072c:	eaffffaf 	b	800005f0 <_Z13HeapAddToListP13OrderedList_t+0xb0>
80000730:	e3051010 	movw	r1, #20496	; 0x5010
80000734:	e3050014 	movw	r0, #20500	; 0x5014
80000738:	e3481000 	movt	r1, #32768	; 0x8000
8000073c:	e3480000 	movt	r0, #32768	; 0x8000
80000740:	eb00010f 	bl	80000b84 <_Z9HeapErrorPKcS0_>

80000744 <_Z15HeapAlignToPageP13OrderedList_t>:
80000744:	e92d4ff0 	push	{r4, r5, r6, r7, r8, r9, sl, fp, lr}
80000748:	e2506000 	subs	r6, r0, #0
8000074c:	e24dd00c 	sub	sp, sp, #12
80000750:	0a000063 	beq	800008e4 <_Z15HeapAlignToPageP13OrderedList_t+0x1a0>
80000754:	e5960000 	ldr	r0, [r6]
80000758:	e305107c 	movw	r1, #20604	; 0x507c
8000075c:	e3481000 	movt	r1, #32768	; 0x8000
80000760:	eb0002f3 	bl	80001334 <_Z15HeapValidateHdrP13KHeapHeader_tPKc>
80000764:	e5965000 	ldr	r5, [r6]
80000768:	e1a00006 	mov	r0, r6
8000076c:	eb0000d0 	bl	80000ab4 <_Z22HeapCalcPageAdjustmentP13OrderedList_t>
80000770:	e1a04000 	mov	r4, r0
80000774:	e1a00006 	mov	r0, r6
80000778:	e5956008 	ldr	r6, [r5, #8]
8000077c:	eb00026a 	bl	8000112c <_Z16HeapReleaseEntryP13OrderedList_t>
80000780:	e0449005 	sub	r9, r4, r5
80000784:	e2466008 	sub	r6, r6, #8
80000788:	e3590037 	cmp	r9, #55	; 0x37
8000078c:	e0858006 	add	r8, r5, r6
80000790:	e0487004 	sub	r7, r8, r4
80000794:	e2877008 	add	r7, r7, #8
80000798:	8a00001c 	bhi	80000810 <_Z15HeapAlignToPageP13OrderedList_t+0xcc>
8000079c:	e5152004 	ldr	r2, [r5, #-4]
800007a0:	e3083004 	movw	r3, #32772	; 0x8004
800007a4:	e3483000 	movt	r3, #32768	; 0x8000
800007a8:	e5933000 	ldr	r3, [r3]
800007ac:	e5933014 	ldr	r3, [r3, #20]
800007b0:	e1530002 	cmp	r3, r2
800007b4:	9a000038 	bls	8000089c <_Z15HeapAlignToPageP13OrderedList_t+0x158>
800007b8:	e5847008 	str	r7, [r4, #8]
800007bc:	e3e03045 	mvn	r3, #69	; 0x45
800007c0:	e5c43001 	strb	r3, [r4, #1]
800007c4:	e3e02049 	mvn	r2, #73	; 0x49
800007c8:	e5c43003 	strb	r3, [r4, #3]
800007cc:	e3a030dd 	mov	r3, #221	; 0xdd
800007d0:	e5c42002 	strb	r2, [r4, #2]
800007d4:	e3a01001 	mov	r1, #1
800007d8:	e5c43000 	strb	r3, [r4]
800007dc:	e1a00004 	mov	r0, r4
800007e0:	e5943000 	ldr	r3, [r4]
800007e4:	e5884004 	str	r4, [r8, #4]
800007e8:	e7853006 	str	r3, [r5, r6]
800007ec:	eb00022c 	bl	800010a4 <_Z16HeapNewListEntryP13KHeapHeader_tb>
800007f0:	e1a06000 	mov	r6, r0
800007f4:	e3051108 	movw	r1, #20744	; 0x5108
800007f8:	e1a00004 	mov	r0, r4
800007fc:	e3481000 	movt	r1, #32768	; 0x8000
80000800:	eb0002cb 	bl	80001334 <_Z15HeapValidateHdrP13KHeapHeader_tPKc>
80000804:	e1a00006 	mov	r0, r6
80000808:	e28dd00c 	add	sp, sp, #12
8000080c:	e8bd8ff0 	pop	{r4, r5, r6, r7, r8, r9, sl, fp, pc}
80000810:	e5859008 	str	r9, [r5, #8]
80000814:	e3e0b049 	mvn	fp, #73	; 0x49
80000818:	e5c5b002 	strb	fp, [r5, #2]
8000081c:	e3e09045 	mvn	r9, #69	; 0x45
80000820:	e5c59001 	strb	r9, [r5, #1]
80000824:	e3a0a0dd 	mov	sl, #221	; 0xdd
80000828:	e5c59003 	strb	r9, [r5, #3]
8000082c:	e3a01001 	mov	r1, #1
80000830:	e5c5a000 	strb	sl, [r5]
80000834:	e1a00005 	mov	r0, r5
80000838:	e5953000 	ldr	r3, [r5]
8000083c:	e5045004 	str	r5, [r4, #-4]
80000840:	e5043008 	str	r3, [r4, #-8]
80000844:	eb000216 	bl	800010a4 <_Z16HeapNewListEntryP13KHeapHeader_tb>
80000848:	e30510b4 	movw	r1, #20660	; 0x50b4
8000084c:	e1a00005 	mov	r0, r5
80000850:	e3481000 	movt	r1, #32768	; 0x8000
80000854:	eb0002b6 	bl	80001334 <_Z15HeapValidateHdrP13KHeapHeader_tPKc>
80000858:	e5c4b002 	strb	fp, [r4, #2]
8000085c:	e3a01001 	mov	r1, #1
80000860:	e5c49001 	strb	r9, [r4, #1]
80000864:	e1a00004 	mov	r0, r4
80000868:	e5c49003 	strb	r9, [r4, #3]
8000086c:	e5c4a000 	strb	sl, [r4]
80000870:	e5943000 	ldr	r3, [r4]
80000874:	e5847008 	str	r7, [r4, #8]
80000878:	e5884004 	str	r4, [r8, #4]
8000087c:	e7853006 	str	r3, [r5, r6]
80000880:	eb000207 	bl	800010a4 <_Z16HeapNewListEntryP13KHeapHeader_tb>
80000884:	e30510dc 	movw	r1, #20700	; 0x50dc
80000888:	e1a06000 	mov	r6, r0
8000088c:	e3481000 	movt	r1, #32768	; 0x8000
80000890:	e1a00005 	mov	r0, r5
80000894:	eb0002a6 	bl	80001334 <_Z15HeapValidateHdrP13KHeapHeader_tPKc>
80000898:	eaffffd5 	b	800007f4 <_Z15HeapAlignToPageP13OrderedList_t+0xb0>
8000089c:	e5923008 	ldr	r3, [r2, #8]
800008a0:	e1a0e00d 	mov	lr, sp
800008a4:	e1a0c00d 	mov	ip, sp
800008a8:	e0821003 	add	r1, r2, r3
800008ac:	e0839009 	add	r9, r3, r9
800008b0:	e5310008 	ldr	r0, [r1, #-8]!
800008b4:	e5911004 	ldr	r1, [r1, #4]
800008b8:	e5829008 	str	r9, [r2, #8]
800008bc:	e8ae0003 	stmia	lr!, {r0, r1}
800008c0:	e0829009 	add	r9, r2, r9
800008c4:	e8bc0003 	ldm	ip!, {r0, r1}
800008c8:	e5091004 	str	r1, [r9, #-4]
800008cc:	e3051090 	movw	r1, #20624	; 0x5090
800008d0:	e5090008 	str	r0, [r9, #-8]
800008d4:	e1a00002 	mov	r0, r2
800008d8:	e3481000 	movt	r1, #32768	; 0x8000
800008dc:	eb000294 	bl	80001334 <_Z15HeapValidateHdrP13KHeapHeader_tPKc>
800008e0:	eaffffb4 	b	800007b8 <_Z15HeapAlignToPageP13OrderedList_t+0x74>
800008e4:	e3051010 	movw	r1, #20496	; 0x5010
800008e8:	e305005c 	movw	r0, #20572	; 0x505c
800008ec:	e3481000 	movt	r1, #32768	; 0x8000
800008f0:	e3480000 	movt	r0, #32768	; 0x8000
800008f4:	eb0000a2 	bl	80000b84 <_Z9HeapErrorPKcS0_>

800008f8 <_Z9HeapAllocjb>:
800008f8:	e92d47f0 	push	{r4, r5, r6, r7, r8, r9, sl, lr}
800008fc:	e30f7c0c 	movw	r7, #64524	; 0xfc0c
80000900:	e3487003 	movt	r7, #32771	; 0x8003
80000904:	e3096200 	movw	r6, #37376	; 0x9200
80000908:	e3486000 	movt	r6, #32768	; 0x8000
8000090c:	e1a04000 	mov	r4, r0
80000910:	e5973000 	ldr	r3, [r7]
80000914:	e3050134 	movw	r0, #20788	; 0x5134
80000918:	e3480000 	movt	r0, #32768	; 0x8000
8000091c:	e1a02006 	mov	r2, r6
80000920:	e1a08001 	mov	r8, r1
80000924:	e1a05006 	mov	r5, r6
80000928:	e1a01003 	mov	r1, r3
8000092c:	eb000df1 	bl	800040f8 <_Z7kprintfPKcz>
80000930:	e3a02001 	mov	r2, #1
80000934:	e3a01000 	mov	r1, #0
80000938:	e1a00005 	mov	r0, r5
8000093c:	eb000cfc 	bl	80003d34 <SpinlockAtomicLock>
80000940:	e3500000 	cmp	r0, #0
80000944:	1afffff9 	bne	80000930 <_Z9HeapAllocjb+0x38>
80000948:	e5973000 	ldr	r3, [r7]
8000094c:	e5863004 	str	r3, [r6, #4]
80000950:	ebfffdd6 	bl	800000b0 <DisableInterrupts>
80000954:	e354001f 	cmp	r4, #31
80000958:	e1a07000 	mov	r7, r0
8000095c:	93a04034 	movls	r4, #52	; 0x34
80000960:	9a000003 	bls	80000974 <_Z9HeapAllocjb+0x7c>
80000964:	e3140003 	tst	r4, #3
80000968:	12844004 	addne	r4, r4, #4
8000096c:	13c44003 	bicne	r4, r4, #3
80000970:	e2844014 	add	r4, r4, #20
80000974:	e1a01008 	mov	r1, r8
80000978:	e1a00004 	mov	r0, r4
8000097c:	eb00008a 	bl	80000bac <_Z12HeapFindHolejb>
80000980:	e2509000 	subs	r9, r0, #0
80000984:	0a00003c 	beq	80000a7c <_Z9HeapAllocjb+0x184>
80000988:	e5990000 	ldr	r0, [r9]
8000098c:	e3051174 	movw	r1, #20852	; 0x5174
80000990:	e3481000 	movt	r1, #32768	; 0x8000
80000994:	eb000266 	bl	80001334 <_Z15HeapValidateHdrP13KHeapHeader_tPKc>
80000998:	e3580000 	cmp	r8, #0
8000099c:	1a00002d 	bne	80000a58 <_Z9HeapAllocjb+0x160>
800009a0:	e5995000 	ldr	r5, [r9]
800009a4:	e5953008 	ldr	r3, [r5, #8]
800009a8:	e1530004 	cmp	r3, r4
800009ac:	0a000002 	beq	800009bc <_Z9HeapAllocjb+0xc4>
800009b0:	e0442003 	sub	r2, r4, r3
800009b4:	e3520037 	cmp	r2, #55	; 0x37
800009b8:	8a00001b 	bhi	80000a2c <_Z9HeapAllocjb+0x134>
800009bc:	e2434008 	sub	r4, r3, #8
800009c0:	e1a00009 	mov	r0, r9
800009c4:	eb0001d8 	bl	8000112c <_Z16HeapReleaseEntryP13OrderedList_t>
800009c8:	e7d53004 	ldrb	r3, [r5, r4]
800009cc:	e305119c 	movw	r1, #20892	; 0x519c
800009d0:	e5d52000 	ldrb	r2, [r5]
800009d4:	e1a00005 	mov	r0, r5
800009d8:	e3481000 	movt	r1, #32768	; 0x8000
800009dc:	e7c0301f 	bfc	r3, #0, #1
800009e0:	e7c0201f 	bfc	r2, #0, #1
800009e4:	e5c52000 	strb	r2, [r5]
800009e8:	e7c53004 	strb	r3, [r5, r4]
800009ec:	eb000250 	bl	80001334 <_Z15HeapValidateHdrP13KHeapHeader_tPKc>
800009f0:	eb000038 	bl	80000ad8 <_Z15HeapCheckHealthv>
800009f4:	e1a00007 	mov	r0, r7
800009f8:	eb000c7e 	bl	80003bf8 <RestoreInterrupts>
800009fc:	e3090200 	movw	r0, #37376	; 0x9200
80000a00:	e3480000 	movt	r0, #32768	; 0x8000
80000a04:	eb000cd2 	bl	80003d54 <SpinlockClear>
80000a08:	e3091200 	movw	r1, #37376	; 0x9200
80000a0c:	e305015c 	movw	r0, #20828	; 0x515c
80000a10:	e3481000 	movt	r1, #32768	; 0x8000
80000a14:	e3a03000 	mov	r3, #0
80000a18:	e3480000 	movt	r0, #32768	; 0x8000
80000a1c:	e5863004 	str	r3, [r6, #4]
80000a20:	eb000db4 	bl	800040f8 <_Z7kprintfPKcz>
80000a24:	e285000c 	add	r0, r5, #12
80000a28:	e8bd87f0 	pop	{r4, r5, r6, r7, r8, r9, sl, pc}
80000a2c:	e1a01004 	mov	r1, r4
80000a30:	e1a00009 	mov	r0, r9
80000a34:	eb000207 	bl	80001258 <_Z11HeapSplitAtP13OrderedList_tj>
80000a38:	e1a05000 	mov	r5, r0
80000a3c:	e3050174 	movw	r0, #20852	; 0x5174
80000a40:	e3480000 	movt	r0, #32768	; 0x8000
80000a44:	eb00027b 	bl	80001438 <_Z15HeapValidatePtrPKc>
80000a48:	e30511c8 	movw	r1, #20936	; 0x51c8
80000a4c:	e1a00005 	mov	r0, r5
80000a50:	e3481000 	movt	r1, #32768	; 0x8000
80000a54:	eaffffe4 	b	800009ec <_Z9HeapAllocjb+0xf4>
80000a58:	e1a00009 	mov	r0, r9
80000a5c:	ebffff38 	bl	80000744 <_Z15HeapAlignToPageP13OrderedList_t>
80000a60:	e2509000 	subs	r9, r0, #0
80000a64:	0a000004 	beq	80000a7c <_Z9HeapAllocjb+0x184>
80000a68:	e5990000 	ldr	r0, [r9]
80000a6c:	e3051180 	movw	r1, #20864	; 0x5180
80000a70:	e3481000 	movt	r1, #32768	; 0x8000
80000a74:	eb00022e 	bl	80001334 <_Z15HeapValidateHdrP13KHeapHeader_tPKc>
80000a78:	eaffffc8 	b	800009a0 <_Z9HeapAllocjb+0xa8>
80000a7c:	eb000015 	bl	80000ad8 <_Z15HeapCheckHealthv>
80000a80:	e1a00007 	mov	r0, r7
80000a84:	eb000c5b 	bl	80003bf8 <RestoreInterrupts>
80000a88:	e3090200 	movw	r0, #37376	; 0x9200
80000a8c:	e3480000 	movt	r0, #32768	; 0x8000
80000a90:	eb000caf 	bl	80003d54 <SpinlockClear>
80000a94:	e5869004 	str	r9, [r6, #4]
80000a98:	e3091200 	movw	r1, #37376	; 0x9200
80000a9c:	e3481000 	movt	r1, #32768	; 0x8000
80000aa0:	e305015c 	movw	r0, #20828	; 0x515c
80000aa4:	e3480000 	movt	r0, #32768	; 0x8000
80000aa8:	eb000d92 	bl	800040f8 <_Z7kprintfPKcz>
80000aac:	e1a00009 	mov	r0, r9
80000ab0:	e8bd87f0 	pop	{r4, r5, r6, r7, r8, r9, sl, pc}

80000ab4 <_Z22HeapCalcPageAdjustmentP13OrderedList_t>:
80000ab4:	e5900000 	ldr	r0, [r0]
80000ab8:	e280000c 	add	r0, r0, #12
80000abc:	e7eb3050 	ubfx	r3, r0, #0, #12
80000ac0:	e3530000 	cmp	r3, #0
80000ac4:	13c00eff 	bicne	r0, r0, #4080	; 0xff0
80000ac8:	13c0000f 	bicne	r0, r0, #15
80000acc:	12800a01 	addne	r0, r0, #4096	; 0x1000
80000ad0:	e240000c 	sub	r0, r0, #12
80000ad4:	e12fff1e 	bx	lr

80000ad8 <_Z15HeapCheckHealthv>:
80000ad8:	e3082004 	movw	r2, #32772	; 0x8004
80000adc:	e30b0adc 	movw	r0, #47836	; 0xbadc
80000ae0:	e3482000 	movt	r2, #32768	; 0x8000
80000ae4:	e3a03000 	mov	r3, #0
80000ae8:	e92d4070 	push	{r4, r5, r6, lr}
80000aec:	e5921000 	ldr	r1, [r2]
80000af0:	e34b0ab6 	movt	r0, #47798	; 0xbab6
80000af4:	e5912014 	ldr	r2, [r1, #20]
80000af8:	e5915018 	ldr	r5, [r1, #24]
80000afc:	ea000003 	b	80000b10 <_Z15HeapCheckHealthv+0x38>
80000b00:	e2833001 	add	r3, r3, #1
80000b04:	e082200c 	add	r2, r2, ip
80000b08:	e1550002 	cmp	r5, r2
80000b0c:	9a000016 	bls	80000b6c <_Z15HeapCheckHealthv+0x94>
80000b10:	e5924000 	ldr	r4, [r2]
80000b14:	e592c008 	ldr	ip, [r2, #8]
80000b18:	e3c41001 	bic	r1, r4, #1
80000b1c:	e1510000 	cmp	r1, r0
80000b20:	1afffff6 	bne	80000b00 <_Z15HeapCheckHealthv+0x28>
80000b24:	e24c1008 	sub	r1, ip, #8
80000b28:	e0821001 	add	r1, r2, r1
80000b2c:	e591e000 	ldr	lr, [r1]
80000b30:	e3ce6001 	bic	r6, lr, #1
80000b34:	e1560000 	cmp	r6, r0
80000b38:	1afffff0 	bne	80000b00 <_Z15HeapCheckHealthv+0x28>
80000b3c:	e154000e 	cmp	r4, lr
80000b40:	1affffee 	bne	80000b00 <_Z15HeapCheckHealthv+0x28>
80000b44:	e5911004 	ldr	r1, [r1, #4]
80000b48:	e1520001 	cmp	r2, r1
80000b4c:	1affffeb 	bne	80000b00 <_Z15HeapCheckHealthv+0x28>
80000b50:	e5d2e000 	ldrb	lr, [r2]
80000b54:	e5921004 	ldr	r1, [r2, #4]
80000b58:	e31e0001 	tst	lr, #1
80000b5c:	0a000005 	beq	80000b78 <_Z15HeapCheckHealthv+0xa0>
80000b60:	e3510000 	cmp	r1, #0
80000b64:	1affffe6 	bne	80000b04 <_Z15HeapCheckHealthv+0x2c>
80000b68:	eaffffe4 	b	80000b00 <_Z15HeapCheckHealthv+0x28>
80000b6c:	e3530000 	cmp	r3, #0
80000b70:	08bd8070 	popeq	{r4, r5, r6, pc}
80000b74:	eafffffe 	b	80000b74 <_Z15HeapCheckHealthv+0x9c>
80000b78:	e3510000 	cmp	r1, #0
80000b7c:	1affffdf 	bne	80000b00 <_Z15HeapCheckHealthv+0x28>
80000b80:	eaffffdf 	b	80000b04 <_Z15HeapCheckHealthv+0x2c>

80000b84 <_Z9HeapErrorPKcS0_>:
80000b84:	e92d4010 	push	{r4, lr}
80000b88:	e1a05001 	mov	r5, r1
80000b8c:	e1a04000 	mov	r4, r0
80000b90:	ebfffd46 	bl	800000b0 <DisableInterrupts>
80000b94:	e30501f4 	movw	r0, #20980	; 0x51f4
80000b98:	e1a02005 	mov	r2, r5
80000b9c:	e3480000 	movt	r0, #32768	; 0x8000
80000ba0:	e1a01004 	mov	r1, r4
80000ba4:	eb000d53 	bl	800040f8 <_Z7kprintfPKcz>
80000ba8:	eb000ddd 	bl	80004324 <Halt>

80000bac <_Z12HeapFindHolejb>:
80000bac:	e3500c02 	cmp	r0, #512	; 0x200
80000bb0:	33083004 	movwcc	r3, #32772	; 0x8004
80000bb4:	33483000 	movtcc	r3, #32768	; 0x8000
80000bb8:	e92d47f0 	push	{r4, r5, r6, r7, r8, r9, sl, lr}
80000bbc:	23a04000 	movcs	r4, #0
80000bc0:	35933000 	ldrcc	r3, [r3]
80000bc4:	35934000 	ldrcc	r4, [r3]
80000bc8:	e2403c02 	sub	r3, r0, #512	; 0x200
80000bcc:	e3530c02 	cmp	r3, #512	; 0x200
80000bd0:	33083004 	movwcc	r3, #32772	; 0x8004
80000bd4:	33483000 	movtcc	r3, #32768	; 0x8000
80000bd8:	35933000 	ldrcc	r3, [r3]
80000bdc:	35934004 	ldrcc	r4, [r3, #4]
80000be0:	e2403b01 	sub	r3, r0, #1024	; 0x400
80000be4:	e3530b03 	cmp	r3, #3072	; 0xc00
80000be8:	33083004 	movwcc	r3, #32772	; 0x8004
80000bec:	33483000 	movtcc	r3, #32768	; 0x8000
80000bf0:	35933000 	ldrcc	r3, [r3]
80000bf4:	35934008 	ldrcc	r4, [r3, #8]
80000bf8:	e2403a01 	sub	r3, r0, #4096	; 0x1000
80000bfc:	e3530a03 	cmp	r3, #12288	; 0x3000
80000c00:	2a00001b 	bcs	80000c74 <_Z12HeapFindHolejb+0xc8>
80000c04:	e3083004 	movw	r3, #32772	; 0x8004
80000c08:	e3483000 	movt	r3, #32768	; 0x8000
80000c0c:	e5933000 	ldr	r3, [r3]
80000c10:	e593400c 	ldr	r4, [r3, #12]
80000c14:	e3540000 	cmp	r4, #0
80000c18:	0a000012 	beq	80000c68 <_Z12HeapFindHolejb+0xbc>
80000c1c:	e1a08001 	mov	r8, r1
80000c20:	e1a06000 	mov	r6, r0
80000c24:	e240900c 	sub	r9, r0, #12
80000c28:	e5945004 	ldr	r5, [r4, #4]
80000c2c:	e1a00004 	mov	r0, r4
80000c30:	e1550006 	cmp	r5, r6
80000c34:	3a000008 	bcc	80000c5c <_Z12HeapFindHolejb+0xb0>
80000c38:	e3580000 	cmp	r8, #0
80000c3c:	0a00000a 	beq	80000c6c <_Z12HeapFindHolejb+0xc0>
80000c40:	e5947000 	ldr	r7, [r4]
80000c44:	ebffff9a 	bl	80000ab4 <_Z22HeapCalcPageAdjustmentP13OrderedList_t>
80000c48:	e0855007 	add	r5, r5, r7
80000c4c:	e0555000 	subs	r5, r5, r0
80000c50:	0a000001 	beq	80000c5c <_Z12HeapFindHolejb+0xb0>
80000c54:	e1590005 	cmp	r9, r5
80000c58:	9a000003 	bls	80000c6c <_Z12HeapFindHolejb+0xc0>
80000c5c:	e594400c 	ldr	r4, [r4, #12]
80000c60:	e3540000 	cmp	r4, #0
80000c64:	1affffef 	bne	80000c28 <_Z12HeapFindHolejb+0x7c>
80000c68:	e3a04000 	mov	r4, #0
80000c6c:	e1a00004 	mov	r0, r4
80000c70:	e8bd87f0 	pop	{r4, r5, r6, r7, r8, r9, sl, pc}
80000c74:	e3500901 	cmp	r0, #16384	; 0x4000
80000c78:	23083004 	movwcs	r3, #32772	; 0x8004
80000c7c:	23483000 	movtcs	r3, #32768	; 0x8000
80000c80:	25933000 	ldrcs	r3, [r3]
80000c84:	25934010 	ldrcs	r4, [r3, #16]
80000c88:	eaffffe1 	b	80000c14 <_Z12HeapFindHolejb+0x68>

80000c8c <_Z8HeapFreePv>:
80000c8c:	e92d47f0 	push	{r4, r5, r6, r7, r8, r9, sl, lr}
80000c90:	e2505000 	subs	r5, r0, #0
80000c94:	08bd87f0 	popeq	{r4, r5, r6, r7, r8, r9, sl, pc}
80000c98:	e3092200 	movw	r2, #37376	; 0x9200
80000c9c:	e30f6c0c 	movw	r6, #64524	; 0xfc0c
80000ca0:	e3486003 	movt	r6, #32771	; 0x8003
80000ca4:	e1a07002 	mov	r7, r2
80000ca8:	e3487000 	movt	r7, #32768	; 0x8000
80000cac:	e3050134 	movw	r0, #20788	; 0x5134
80000cb0:	e5961000 	ldr	r1, [r6]
80000cb4:	e1a02007 	mov	r2, r7
80000cb8:	e3480000 	movt	r0, #32768	; 0x8000
80000cbc:	e1a04007 	mov	r4, r7
80000cc0:	eb000d0c 	bl	800040f8 <_Z7kprintfPKcz>
80000cc4:	e3a02001 	mov	r2, #1
80000cc8:	e3a01000 	mov	r1, #0
80000ccc:	e1a00004 	mov	r0, r4
80000cd0:	eb000c17 	bl	80003d34 <SpinlockAtomicLock>
80000cd4:	e3500000 	cmp	r0, #0
80000cd8:	1afffff9 	bne	80000cc4 <_Z8HeapFreePv+0x38>
80000cdc:	e5963000 	ldr	r3, [r6]
80000ce0:	e245400c 	sub	r4, r5, #12
80000ce4:	e5873004 	str	r3, [r7, #4]
80000ce8:	ebfffcf0 	bl	800000b0 <DisableInterrupts>
80000cec:	e5158004 	ldr	r8, [r5, #-4]
80000cf0:	e305120c 	movw	r1, #21004	; 0x520c
80000cf4:	e3481000 	movt	r1, #32768	; 0x8000
80000cf8:	e1a06000 	mov	r6, r0
80000cfc:	e1a00004 	mov	r0, r4
80000d00:	eb00018b 	bl	80001334 <_Z15HeapValidateHdrP13KHeapHeader_tPKc>
80000d04:	ebffff73 	bl	80000ad8 <_Z15HeapCheckHealthv>
80000d08:	e555300c 	ldrb	r3, [r5, #-12]
80000d0c:	e3130001 	tst	r3, #1
80000d10:	0a00000d 	beq	80000d4c <_Z8HeapFreePv+0xc0>
80000d14:	ebffff6f 	bl	80000ad8 <_Z15HeapCheckHealthv>
80000d18:	e1a00006 	mov	r0, r6
80000d1c:	eb000bb5 	bl	80003bf8 <RestoreInterrupts>
80000d20:	e3090200 	movw	r0, #37376	; 0x9200
80000d24:	e3480000 	movt	r0, #32768	; 0x8000
80000d28:	eb000c09 	bl	80003d54 <SpinlockClear>
80000d2c:	e3091200 	movw	r1, #37376	; 0x9200
80000d30:	e305015c 	movw	r0, #20828	; 0x515c
80000d34:	e3481000 	movt	r1, #32768	; 0x8000
80000d38:	e3a03000 	mov	r3, #0
80000d3c:	e5873004 	str	r3, [r7, #4]
80000d40:	e3480000 	movt	r0, #32768	; 0x8000
80000d44:	e8bd47f0 	pop	{r4, r5, r6, r7, r8, r9, sl, lr}
80000d48:	ea000cea 	b	800040f8 <_Z7kprintfPKcz>
80000d4c:	e515200c 	ldr	r2, [r5, #-12]
80000d50:	e30b3adc 	movw	r3, #47836	; 0xbadc
80000d54:	e34b3ab6 	movt	r3, #47798	; 0xbab6
80000d58:	e1520003 	cmp	r2, r3
80000d5c:	1affffec 	bne	80000d14 <_Z8HeapFreePv+0x88>
80000d60:	e2488008 	sub	r8, r8, #8
80000d64:	e0843008 	add	r3, r4, r8
80000d68:	e5931000 	ldr	r1, [r3]
80000d6c:	e1510002 	cmp	r1, r2
80000d70:	1affffe7 	bne	80000d14 <_Z8HeapFreePv+0x88>
80000d74:	e5933004 	ldr	r3, [r3, #4]
80000d78:	e1540003 	cmp	r4, r3
80000d7c:	1affffe4 	bne	80000d14 <_Z8HeapFreePv+0x88>
80000d80:	ebffff54 	bl	80000ad8 <_Z15HeapCheckHealthv>
80000d84:	e1a00004 	mov	r0, r4
80000d88:	eb000097 	bl	80000fec <_Z14HeapMergeRightP13KHeapHeader_t>
80000d8c:	ebffff51 	bl	80000ad8 <_Z15HeapCheckHealthv>
80000d90:	e1a00004 	mov	r0, r4
80000d94:	eb00006c 	bl	80000f4c <_Z13HeapMergeLeftP13KHeapHeader_t>
80000d98:	e1a09000 	mov	r9, r0
80000d9c:	ebffff4d 	bl	80000ad8 <_Z15HeapCheckHealthv>
80000da0:	e3590000 	cmp	r9, #0
80000da4:	0a000009 	beq	80000dd0 <_Z8HeapFreePv+0x144>
80000da8:	e5991000 	ldr	r1, [r9]
80000dac:	e7d42008 	ldrb	r2, [r4, r8]
80000db0:	e5d13000 	ldrb	r3, [r1]
80000db4:	e3822001 	orr	r2, r2, #1
80000db8:	e7c42008 	strb	r2, [r4, r8]
80000dbc:	e3833001 	orr	r3, r3, #1
80000dc0:	e5c13000 	strb	r3, [r1]
80000dc4:	e1a00009 	mov	r0, r9
80000dc8:	ebfffddc 	bl	80000540 <_Z13HeapAddToListP13OrderedList_t>
80000dcc:	eaffffd0 	b	80000d14 <_Z8HeapFreePv+0x88>
80000dd0:	e5159008 	ldr	r9, [r5, #-8]
80000dd4:	e7d42008 	ldrb	r2, [r4, r8]
80000dd8:	e555300c 	ldrb	r3, [r5, #-12]
80000ddc:	e3590000 	cmp	r9, #0
80000de0:	e3822001 	orr	r2, r2, #1
80000de4:	e7c42008 	strb	r2, [r4, r8]
80000de8:	e3833001 	orr	r3, r3, #1
80000dec:	e545300c 	strb	r3, [r5, #-12]
80000df0:	1afffff3 	bne	80000dc4 <_Z8HeapFreePv+0x138>
80000df4:	e1a00004 	mov	r0, r4
80000df8:	e3a01001 	mov	r1, #1
80000dfc:	eb0000a8 	bl	800010a4 <_Z16HeapNewListEntryP13KHeapHeader_tb>
80000e00:	eaffffc3 	b	80000d14 <_Z8HeapFreePv+0x88>

80000e04 <_Z8HeapInitv>:
80000e04:	e92d41f0 	push	{r4, r5, r6, r7, r8, lr}
80000e08:	e30f4000 	movw	r4, #61440	; 0xf000
80000e0c:	e3484000 	movt	r4, #32768	; 0x8000
80000e10:	e3088000 	movw	r8, #32768	; 0x8000
80000e14:	e3488000 	movt	r8, #32768	; 0x8000
80000e18:	e2847801 	add	r7, r4, #65536	; 0x10000
80000e1c:	e1540007 	cmp	r4, r7
80000e20:	e5986000 	ldr	r6, [r8]
80000e24:	2a00000a 	bcs	80000e54 <_Z8HeapInitv+0x50>
80000e28:	e0466004 	sub	r6, r6, r4
80000e2c:	e0865004 	add	r5, r6, r4
80000e30:	e1a00004 	mov	r0, r4
80000e34:	e2844a01 	add	r4, r4, #4096	; 0x1000
80000e38:	eb0004b9 	bl	80002124 <_Z12MmuUnmapPagej>
80000e3c:	e1a01000 	mov	r1, r0
80000e40:	e3a02003 	mov	r2, #3
80000e44:	e1a00005 	mov	r0, r5
80000e48:	eb000474 	bl	80002020 <_Z13MmuMapToFramejji>
80000e4c:	e1570004 	cmp	r7, r4
80000e50:	1afffff5 	bne	80000e2c <_Z8HeapInitv+0x28>
80000e54:	e30a4024 	movw	r4, #40996	; 0xa024
80000e58:	e3a02901 	mov	r2, #16384	; 0x4000
80000e5c:	e3484000 	movt	r4, #32768	; 0x8000
80000e60:	e3a01000 	mov	r1, #0
80000e64:	e1a00004 	mov	r0, r4
80000e68:	e3a054fb 	mov	r5, #-83886080	; 0xfb000000
80000e6c:	eb000c80 	bl	80004074 <kMemSetB>
80000e70:	e5983000 	ldr	r3, [r8]
80000e74:	e30a2000 	movw	r2, #40960	; 0xa000
80000e78:	e3482000 	movt	r2, #32768	; 0x8000
80000e7c:	e3a01801 	mov	r1, #65536	; 0x10000
80000e80:	e5841004 	str	r1, [r4, #4]
80000e84:	e2830801 	add	r0, r3, #65536	; 0x10000
80000e88:	e5820018 	str	r0, [r2, #24]
80000e8c:	e3a01000 	mov	r1, #0
80000e90:	e5824010 	str	r4, [r2, #16]
80000e94:	e3e00045 	mvn	r0, #69	; 0x45
80000e98:	e5823014 	str	r3, [r2, #20]
80000e9c:	e3e0e049 	mvn	lr, #73	; 0x49
80000ea0:	e582400c 	str	r4, [r2, #12]
80000ea4:	e3a0c0dd 	mov	ip, #221	; 0xdd
80000ea8:	e5824008 	str	r4, [r2, #8]
80000eac:	e582501c 	str	r5, [r2, #28]
80000eb0:	e584100c 	str	r1, [r4, #12]
80000eb4:	e5841008 	str	r1, [r4, #8]
80000eb8:	e5824004 	str	r4, [r2, #4]
80000ebc:	e5824000 	str	r4, [r2]
80000ec0:	e5843000 	str	r3, [r4]
80000ec4:	e5c3c000 	strb	ip, [r3]
80000ec8:	e3a0c001 	mov	ip, #1
80000ecc:	e5c3e002 	strb	lr, [r3, #2]
80000ed0:	e283ea0f 	add	lr, r3, #61440	; 0xf000
80000ed4:	e5c30001 	strb	r0, [r3, #1]
80000ed8:	e5c30003 	strb	r0, [r3, #3]
80000edc:	e3050238 	movw	r0, #21048	; 0x5238
80000ee0:	e5935000 	ldr	r5, [r3]
80000ee4:	e5c3c00a 	strb	ip, [r3, #10]
80000ee8:	e5834004 	str	r4, [r3, #4]
80000eec:	e5c31008 	strb	r1, [r3, #8]
80000ef0:	e5c31009 	strb	r1, [r3, #9]
80000ef4:	e5c3100b 	strb	r1, [r3, #11]
80000ef8:	e3480000 	movt	r0, #32768	; 0x8000
80000efc:	e58e3ffc 	str	r3, [lr, #4092]	; 0xffc
80000f00:	e58e5ff8 	str	r5, [lr, #4088]	; 0xff8
80000f04:	e5882004 	str	r2, [r8, #4]
80000f08:	e5c2c020 	strb	ip, [r2, #32]
80000f0c:	eb000c79 	bl	800040f8 <_Z7kprintfPKcz>
80000f10:	e5983004 	ldr	r3, [r8, #4]
80000f14:	e3050248 	movw	r0, #21064	; 0x5248
80000f18:	e3480000 	movt	r0, #32768	; 0x8000
80000f1c:	e5931014 	ldr	r1, [r3, #20]
80000f20:	eb000c74 	bl	800040f8 <_Z7kprintfPKcz>
80000f24:	e5941004 	ldr	r1, [r4, #4]
80000f28:	e3050264 	movw	r0, #21092	; 0x5264
80000f2c:	e3480000 	movt	r0, #32768	; 0x8000
80000f30:	eb000c70 	bl	800040f8 <_Z7kprintfPKcz>
80000f34:	e5983004 	ldr	r3, [r8, #4]
80000f38:	e3050280 	movw	r0, #21120	; 0x5280
80000f3c:	e3480000 	movt	r0, #32768	; 0x8000
80000f40:	e5931018 	ldr	r1, [r3, #24]
80000f44:	e8bd41f0 	pop	{r4, r5, r6, r7, r8, lr}
80000f48:	ea000c6a 	b	800040f8 <_Z7kprintfPKcz>

80000f4c <_Z13HeapMergeLeftP13KHeapHeader_t>:
80000f4c:	e92d41f0 	push	{r4, r5, r6, r7, r8, lr}
80000f50:	e2505000 	subs	r5, r0, #0
80000f54:	0a00001f 	beq	80000fd8 <_Z13HeapMergeLeftP13KHeapHeader_t+0x8c>
80000f58:	e3083004 	movw	r3, #32772	; 0x8004
80000f5c:	e3483000 	movt	r3, #32768	; 0x8000
80000f60:	e5933000 	ldr	r3, [r3]
80000f64:	e5937014 	ldr	r7, [r3, #20]
80000f68:	e3570000 	cmp	r7, #0
80000f6c:	1a000017 	bne	80000fd0 <_Z13HeapMergeLeftP13KHeapHeader_t+0x84>
80000f70:	e5154004 	ldr	r4, [r5, #-4]
80000f74:	e5d43000 	ldrb	r3, [r4]
80000f78:	e3130001 	tst	r3, #1
80000f7c:	0a000013 	beq	80000fd0 <_Z13HeapMergeLeftP13KHeapHeader_t+0x84>
80000f80:	e5956008 	ldr	r6, [r5, #8]
80000f84:	e5940004 	ldr	r0, [r4, #4]
80000f88:	e2466008 	sub	r6, r6, #8
80000f8c:	eb000066 	bl	8000112c <_Z16HeapReleaseEntryP13OrderedList_t>
80000f90:	e5952008 	ldr	r2, [r5, #8]
80000f94:	e1a01007 	mov	r1, r7
80000f98:	e5943008 	ldr	r3, [r4, #8]
80000f9c:	e1a00004 	mov	r0, r4
80000fa0:	e085c006 	add	ip, r5, r6
80000fa4:	e0833002 	add	r3, r3, r2
80000fa8:	e5843008 	str	r3, [r4, #8]
80000fac:	e5d43000 	ldrb	r3, [r4]
80000fb0:	e7d52006 	ldrb	r2, [r5, r6]
80000fb4:	e58c4004 	str	r4, [ip, #4]
80000fb8:	e3833001 	orr	r3, r3, #1
80000fbc:	e3822001 	orr	r2, r2, #1
80000fc0:	e7c52006 	strb	r2, [r5, r6]
80000fc4:	e5c43000 	strb	r3, [r4]
80000fc8:	e8bd41f0 	pop	{r4, r5, r6, r7, r8, lr}
80000fcc:	ea000034 	b	800010a4 <_Z16HeapNewListEntryP13KHeapHeader_tb>
80000fd0:	e3a00000 	mov	r0, #0
80000fd4:	e8bd81f0 	pop	{r4, r5, r6, r7, r8, pc}
80000fd8:	e3051010 	movw	r1, #20496	; 0x5010
80000fdc:	e305029c 	movw	r0, #21148	; 0x529c
80000fe0:	e3481000 	movt	r1, #32768	; 0x8000
80000fe4:	e3480000 	movt	r0, #32768	; 0x8000
80000fe8:	ebfffee5 	bl	80000b84 <_Z9HeapErrorPKcS0_>

80000fec <_Z14HeapMergeRightP13KHeapHeader_t>:
80000fec:	e92d41f0 	push	{r4, r5, r6, r7, r8, lr}
80000ff0:	e2504000 	subs	r4, r0, #0
80000ff4:	0a000025 	beq	80001090 <_Z14HeapMergeRightP13KHeapHeader_t+0xa4>
80000ff8:	e5947008 	ldr	r7, [r4, #8]
80000ffc:	e3083004 	movw	r3, #32772	; 0x8004
80001000:	e3483000 	movt	r3, #32768	; 0x8000
80001004:	e0845007 	add	r5, r4, r7
80001008:	e5933000 	ldr	r3, [r3]
8000100c:	e5956008 	ldr	r6, [r5, #8]
80001010:	e5932018 	ldr	r2, [r3, #24]
80001014:	e0853006 	add	r3, r5, r6
80001018:	e1520003 	cmp	r2, r3
8000101c:	3a000019 	bcc	80001088 <_Z14HeapMergeRightP13KHeapHeader_t+0x9c>
80001020:	e30512ec 	movw	r1, #21228	; 0x52ec
80001024:	e1a00005 	mov	r0, r5
80001028:	e3481000 	movt	r1, #32768	; 0x8000
8000102c:	eb0000c0 	bl	80001334 <_Z15HeapValidateHdrP13KHeapHeader_tPKc>
80001030:	e7d43007 	ldrb	r3, [r4, r7]
80001034:	e3130001 	tst	r3, #1
80001038:	0a000012 	beq	80001088 <_Z14HeapMergeRightP13KHeapHeader_t+0x9c>
8000103c:	e5950004 	ldr	r0, [r5, #4]
80001040:	e2466008 	sub	r6, r6, #8
80001044:	e0857006 	add	r7, r5, r6
80001048:	eb000037 	bl	8000112c <_Z16HeapReleaseEntryP13OrderedList_t>
8000104c:	e5952008 	ldr	r2, [r5, #8]
80001050:	e1a00004 	mov	r0, r4
80001054:	e5943008 	ldr	r3, [r4, #8]
80001058:	e3a01000 	mov	r1, #0
8000105c:	e0833002 	add	r3, r3, r2
80001060:	e5843008 	str	r3, [r4, #8]
80001064:	e5d43000 	ldrb	r3, [r4]
80001068:	e7d52006 	ldrb	r2, [r5, r6]
8000106c:	e5874004 	str	r4, [r7, #4]
80001070:	e3833001 	orr	r3, r3, #1
80001074:	e3822001 	orr	r2, r2, #1
80001078:	e7c52006 	strb	r2, [r5, r6]
8000107c:	e5c43000 	strb	r3, [r4]
80001080:	e8bd41f0 	pop	{r4, r5, r6, r7, r8, lr}
80001084:	ea000006 	b	800010a4 <_Z16HeapNewListEntryP13KHeapHeader_tb>
80001088:	e3a00000 	mov	r0, #0
8000108c:	e8bd81f0 	pop	{r4, r5, r6, r7, r8, pc}
80001090:	e3051010 	movw	r1, #20496	; 0x5010
80001094:	e30502c4 	movw	r0, #21188	; 0x52c4
80001098:	e3481000 	movt	r1, #32768	; 0x8000
8000109c:	e3480000 	movt	r0, #32768	; 0x8000
800010a0:	ebfffeb7 	bl	80000b84 <_Z9HeapErrorPKcS0_>

800010a4 <_Z16HeapNewListEntryP13KHeapHeader_tb>:
800010a4:	e30a2024 	movw	r2, #40996	; 0xa024
800010a8:	e3a03000 	mov	r3, #0
800010ac:	e92d4070 	push	{r4, r5, r6, lr}
800010b0:	e1a05000 	mov	r5, r0
800010b4:	e3482000 	movt	r2, #32768	; 0x8000
800010b8:	ea000002 	b	800010c8 <_Z16HeapNewListEntryP13KHeapHeader_tb+0x24>
800010bc:	e2833001 	add	r3, r3, #1
800010c0:	e3530b01 	cmp	r3, #1024	; 0x400
800010c4:	0a000013 	beq	80001118 <_Z16HeapNewListEntryP13KHeapHeader_tb+0x74>
800010c8:	e7920203 	ldr	r0, [r2, r3, lsl #4]
800010cc:	e0824203 	add	r4, r2, r3, lsl #4
800010d0:	e3500000 	cmp	r0, #0
800010d4:	1afffff8 	bne	800010bc <_Z16HeapNewListEntryP13KHeapHeader_tb+0x18>
800010d8:	e7825203 	str	r5, [r2, r3, lsl #4]
800010dc:	e3510000 	cmp	r1, #0
800010e0:	e5953008 	ldr	r3, [r5, #8]
800010e4:	e5840008 	str	r0, [r4, #8]
800010e8:	e5843004 	str	r3, [r4, #4]
800010ec:	e584000c 	str	r0, [r4, #12]
800010f0:	e5854004 	str	r4, [r5, #4]
800010f4:	0a000001 	beq	80001100 <_Z16HeapNewListEntryP13KHeapHeader_tb+0x5c>
800010f8:	e1a00004 	mov	r0, r4
800010fc:	ebfffd0f 	bl	80000540 <_Z13HeapAddToListP13OrderedList_t>
80001100:	e305130c 	movw	r1, #21260	; 0x530c
80001104:	e1a00005 	mov	r0, r5
80001108:	e3481000 	movt	r1, #32768	; 0x8000
8000110c:	eb000088 	bl	80001334 <_Z15HeapValidateHdrP13KHeapHeader_tPKc>
80001110:	e1a00004 	mov	r0, r4
80001114:	e8bd8070 	pop	{r4, r5, r6, pc}
80001118:	e3051010 	movw	r1, #20496	; 0x5010
8000111c:	e3050328 	movw	r0, #21288	; 0x5328
80001120:	e3481000 	movt	r1, #32768	; 0x8000
80001124:	e3480000 	movt	r0, #32768	; 0x8000
80001128:	ebfffe95 	bl	80000b84 <_Z9HeapErrorPKcS0_>

8000112c <_Z16HeapReleaseEntryP13OrderedList_t>:
8000112c:	e92d4010 	push	{r4, lr}
80001130:	e2504000 	subs	r4, r0, #0
80001134:	0a000019 	beq	800011a0 <_Z16HeapReleaseEntryP13OrderedList_t+0x74>
80001138:	e5940000 	ldr	r0, [r4]
8000113c:	e3051378 	movw	r1, #21368	; 0x5378
80001140:	e3481000 	movt	r1, #32768	; 0x8000
80001144:	eb00007a 	bl	80001334 <_Z15HeapValidateHdrP13KHeapHeader_tPKc>
80001148:	e594300c 	ldr	r3, [r4, #12]
8000114c:	e3530000 	cmp	r3, #0
80001150:	0a00000a 	beq	80001180 <_Z16HeapReleaseEntryP13OrderedList_t+0x54>
80001154:	e1a00004 	mov	r0, r4
80001158:	eb000015 	bl	800011b4 <_Z18HeapRemoveFromListP13OrderedList_t>
8000115c:	e5942000 	ldr	r2, [r4]
80001160:	e3a03000 	mov	r3, #0
80001164:	e5c23004 	strb	r3, [r2, #4]
80001168:	e5c23005 	strb	r3, [r2, #5]
8000116c:	e5c23006 	strb	r3, [r2, #6]
80001170:	e5c23007 	strb	r3, [r2, #7]
80001174:	e5843000 	str	r3, [r4]
80001178:	e5843004 	str	r3, [r4, #4]
8000117c:	e8bd8010 	pop	{r4, pc}
80001180:	e5943008 	ldr	r3, [r4, #8]
80001184:	e3530000 	cmp	r3, #0
80001188:	1afffff1 	bne	80001154 <_Z16HeapReleaseEntryP13OrderedList_t+0x28>
8000118c:	e5942000 	ldr	r2, [r4]
80001190:	e5923004 	ldr	r3, [r2, #4]
80001194:	e3530000 	cmp	r3, #0
80001198:	1affffed 	bne	80001154 <_Z16HeapReleaseEntryP13OrderedList_t+0x28>
8000119c:	eaffffef 	b	80001160 <_Z16HeapReleaseEntryP13OrderedList_t+0x34>
800011a0:	e3051010 	movw	r1, #20496	; 0x5010
800011a4:	e3050354 	movw	r0, #21332	; 0x5354
800011a8:	e3481000 	movt	r1, #32768	; 0x8000
800011ac:	e3480000 	movt	r0, #32768	; 0x8000
800011b0:	ebfffe73 	bl	80000b84 <_Z9HeapErrorPKcS0_>

800011b4 <_Z18HeapRemoveFromListP13OrderedList_t>:
800011b4:	e92d4010 	push	{r4, lr}
800011b8:	e2504000 	subs	r4, r0, #0
800011bc:	0a000020 	beq	80001244 <_Z18HeapRemoveFromListP13OrderedList_t+0x90>
800011c0:	e5940000 	ldr	r0, [r4]
800011c4:	e30513b0 	movw	r1, #21424	; 0x53b0
800011c8:	e3481000 	movt	r1, #32768	; 0x8000
800011cc:	eb000058 	bl	80001334 <_Z15HeapValidateHdrP13KHeapHeader_tPKc>
800011d0:	e3083004 	movw	r3, #32772	; 0x8004
800011d4:	e3483000 	movt	r3, #32768	; 0x8000
800011d8:	e5933000 	ldr	r3, [r3]
800011dc:	e5932000 	ldr	r2, [r3]
800011e0:	e5931004 	ldr	r1, [r3, #4]
800011e4:	e1520004 	cmp	r2, r4
800011e8:	e594200c 	ldr	r2, [r4, #12]
800011ec:	05832000 	streq	r2, [r3]
800011f0:	e1510004 	cmp	r1, r4
800011f4:	e5931008 	ldr	r1, [r3, #8]
800011f8:	05832004 	streq	r2, [r3, #4]
800011fc:	e1510004 	cmp	r1, r4
80001200:	e593100c 	ldr	r1, [r3, #12]
80001204:	05832008 	streq	r2, [r3, #8]
80001208:	e1510004 	cmp	r1, r4
8000120c:	e5931010 	ldr	r1, [r3, #16]
80001210:	0583200c 	streq	r2, [r3, #12]
80001214:	e1510004 	cmp	r1, r4
80001218:	05832010 	streq	r2, [r3, #16]
8000121c:	e3520000 	cmp	r2, #0
80001220:	e5943008 	ldr	r3, [r4, #8]
80001224:	15823008 	strne	r3, [r2, #8]
80001228:	15943008 	ldrne	r3, [r4, #8]
8000122c:	e3530000 	cmp	r3, #0
80001230:	1583200c 	strne	r2, [r3, #12]
80001234:	e3a03000 	mov	r3, #0
80001238:	e5843008 	str	r3, [r4, #8]
8000123c:	e584300c 	str	r3, [r4, #12]
80001240:	e8bd8010 	pop	{r4, pc}
80001244:	e3051010 	movw	r1, #20496	; 0x5010
80001248:	e305038c 	movw	r0, #21388	; 0x538c
8000124c:	e3481000 	movt	r1, #32768	; 0x8000
80001250:	e3480000 	movt	r0, #32768	; 0x8000
80001254:	ebfffe4a 	bl	80000b84 <_Z9HeapErrorPKcS0_>

80001258 <_Z11HeapSplitAtP13OrderedList_tj>:
80001258:	e92d47f0 	push	{r4, r5, r6, r7, r8, r9, sl, lr}
8000125c:	e2505000 	subs	r5, r0, #0
80001260:	0a00002e 	beq	80001320 <_Z11HeapSplitAtP13OrderedList_tj+0xc8>
80001264:	e5950000 	ldr	r0, [r5]
80001268:	e1a07001 	mov	r7, r1
8000126c:	e30513e4 	movw	r1, #21476	; 0x53e4
80001270:	e3481000 	movt	r1, #32768	; 0x8000
80001274:	eb00002e 	bl	80001334 <_Z15HeapValidateHdrP13KHeapHeader_tPKc>
80001278:	e30503e4 	movw	r0, #21476	; 0x53e4
8000127c:	e3480000 	movt	r0, #32768	; 0x8000
80001280:	eb00006c 	bl	80001438 <_Z15HeapValidatePtrPKc>
80001284:	e5954000 	ldr	r4, [r5]
80001288:	e1a00005 	mov	r0, r5
8000128c:	e5946008 	ldr	r6, [r4, #8]
80001290:	ebffffa5 	bl	8000112c <_Z16HeapReleaseEntryP13OrderedList_t>
80001294:	e5d43000 	ldrb	r3, [r4]
80001298:	e3e02049 	mvn	r2, #73	; 0x49
8000129c:	e0845007 	add	r5, r4, r7
800012a0:	e3a01001 	mov	r1, #1
800012a4:	e7c0301f 	bfc	r3, #0, #1
800012a8:	e1a00005 	mov	r0, r5
800012ac:	e5c43000 	strb	r3, [r4]
800012b0:	e5943000 	ldr	r3, [r4]
800012b4:	e5847008 	str	r7, [r4, #8]
800012b8:	e0469007 	sub	r9, r6, r7
800012bc:	e2466008 	sub	r6, r6, #8
800012c0:	e5c52002 	strb	r2, [r5, #2]
800012c4:	e3a020dd 	mov	r2, #221	; 0xdd
800012c8:	e5053008 	str	r3, [r5, #-8]
800012cc:	e3e03045 	mvn	r3, #69	; 0x45
800012d0:	e5c53001 	strb	r3, [r5, #1]
800012d4:	e5c53003 	strb	r3, [r5, #3]
800012d8:	e5054004 	str	r4, [r5, #-4]
800012dc:	e0848006 	add	r8, r4, r6
800012e0:	e7c42007 	strb	r2, [r4, r7]
800012e4:	e5953000 	ldr	r3, [r5]
800012e8:	e5859008 	str	r9, [r5, #8]
800012ec:	e7843006 	str	r3, [r4, r6]
800012f0:	e5885004 	str	r5, [r8, #4]
800012f4:	ebffff6a 	bl	800010a4 <_Z16HeapNewListEntryP13KHeapHeader_tb>
800012f8:	e30513f4 	movw	r1, #21492	; 0x53f4
800012fc:	e1a00004 	mov	r0, r4
80001300:	e3481000 	movt	r1, #32768	; 0x8000
80001304:	eb00000a 	bl	80001334 <_Z15HeapValidateHdrP13KHeapHeader_tPKc>
80001308:	e305140c 	movw	r1, #21516	; 0x540c
8000130c:	e1a00005 	mov	r0, r5
80001310:	e3481000 	movt	r1, #32768	; 0x8000
80001314:	eb000006 	bl	80001334 <_Z15HeapValidateHdrP13KHeapHeader_tPKc>
80001318:	e1a00004 	mov	r0, r4
8000131c:	e8bd87f0 	pop	{r4, r5, r6, r7, r8, r9, sl, pc}
80001320:	e3051010 	movw	r1, #20496	; 0x5010
80001324:	e30503c8 	movw	r0, #21448	; 0x53c8
80001328:	e3481000 	movt	r1, #32768	; 0x8000
8000132c:	e3480000 	movt	r0, #32768	; 0x8000
80001330:	ebfffe13 	bl	80000b84 <_Z9HeapErrorPKcS0_>

80001334 <_Z15HeapValidateHdrP13KHeapHeader_tPKc>:
80001334:	e3500000 	cmp	r0, #0
80001338:	e92d4010 	push	{r4, lr}
8000133c:	e1a04001 	mov	r4, r1
80001340:	0a000024 	beq	800013d8 <_Z15HeapValidateHdrP13KHeapHeader_tPKc+0xa4>
80001344:	e5901000 	ldr	r1, [r0]
80001348:	e30b3adc 	movw	r3, #47836	; 0xbadc
8000134c:	e34b3ab6 	movt	r3, #47798	; 0xbab6
80001350:	e3c12001 	bic	r2, r1, #1
80001354:	e590c008 	ldr	ip, [r0, #8]
80001358:	e1520003 	cmp	r2, r3
8000135c:	e24c3008 	sub	r3, ip, #8
80001360:	e0803003 	add	r3, r0, r3
80001364:	1a00001f 	bne	800013e8 <_Z15HeapValidateHdrP13KHeapHeader_tPKc+0xb4>
80001368:	e5933000 	ldr	r3, [r3]
8000136c:	e3c3e001 	bic	lr, r3, #1
80001370:	e15e0002 	cmp	lr, r2
80001374:	1a00001f 	bne	800013f8 <_Z15HeapValidateHdrP13KHeapHeader_tPKc+0xc4>
80001378:	e1510003 	cmp	r1, r3
8000137c:	1a000021 	bne	80001408 <_Z15HeapValidateHdrP13KHeapHeader_tPKc+0xd4>
80001380:	e5d02000 	ldrb	r2, [r0]
80001384:	e5903004 	ldr	r3, [r0, #4]
80001388:	e3120001 	tst	r2, #1
8000138c:	0a00000b 	beq	800013c0 <_Z15HeapValidateHdrP13KHeapHeader_tPKc+0x8c>
80001390:	e3530000 	cmp	r3, #0
80001394:	0a000023 	beq	80001428 <_Z15HeapValidateHdrP13KHeapHeader_tPKc+0xf4>
80001398:	e5932000 	ldr	r2, [r3]
8000139c:	e1520000 	cmp	r2, r0
800013a0:	1a00001c 	bne	80001418 <_Z15HeapValidateHdrP13KHeapHeader_tPKc+0xe4>
800013a4:	e5933004 	ldr	r3, [r3, #4]
800013a8:	e15c0003 	cmp	ip, r3
800013ac:	08bd8010 	popeq	{r4, pc}
800013b0:	e3051530 	movw	r1, #21808	; 0x5530
800013b4:	e1a00004 	mov	r0, r4
800013b8:	e3481000 	movt	r1, #32768	; 0x8000
800013bc:	ebfffdf0 	bl	80000b84 <_Z9HeapErrorPKcS0_>
800013c0:	e3530000 	cmp	r3, #0
800013c4:	08bd8010 	popeq	{r4, pc}
800013c8:	e30514dc 	movw	r1, #21724	; 0x54dc
800013cc:	e1a00004 	mov	r0, r4
800013d0:	e3481000 	movt	r1, #32768	; 0x8000
800013d4:	ebfffdea 	bl	80000b84 <_Z9HeapErrorPKcS0_>
800013d8:	e3051424 	movw	r1, #21540	; 0x5424
800013dc:	e1a00004 	mov	r0, r4
800013e0:	e3481000 	movt	r1, #32768	; 0x8000
800013e4:	ebfffde6 	bl	80000b84 <_Z9HeapErrorPKcS0_>
800013e8:	e3051444 	movw	r1, #21572	; 0x5444
800013ec:	e1a00004 	mov	r0, r4
800013f0:	e3481000 	movt	r1, #32768	; 0x8000
800013f4:	ebfffde2 	bl	80000b84 <_Z9HeapErrorPKcS0_>
800013f8:	e3051468 	movw	r1, #21608	; 0x5468
800013fc:	e1a00004 	mov	r0, r4
80001400:	e3481000 	movt	r1, #32768	; 0x8000
80001404:	ebfffdde 	bl	80000b84 <_Z9HeapErrorPKcS0_>
80001408:	e305148c 	movw	r1, #21644	; 0x548c
8000140c:	e1a00004 	mov	r0, r4
80001410:	e3481000 	movt	r1, #32768	; 0x8000
80001414:	ebfffdda 	bl	80000b84 <_Z9HeapErrorPKcS0_>
80001418:	e305150c 	movw	r1, #21772	; 0x550c
8000141c:	e1a00004 	mov	r0, r4
80001420:	e3481000 	movt	r1, #32768	; 0x8000
80001424:	ebfffdd6 	bl	80000b84 <_Z9HeapErrorPKcS0_>
80001428:	e30514b8 	movw	r1, #21688	; 0x54b8
8000142c:	e1a00004 	mov	r0, r4
80001430:	e3481000 	movt	r1, #32768	; 0x8000
80001434:	ebfffdd2 	bl	80000b84 <_Z9HeapErrorPKcS0_>

80001438 <_Z15HeapValidatePtrPKc>:
80001438:	e3083004 	movw	r3, #32772	; 0x8004
8000143c:	e3483000 	movt	r3, #32768	; 0x8000
80001440:	e5933000 	ldr	r3, [r3]
80001444:	e5933000 	ldr	r3, [r3]
80001448:	e3530000 	cmp	r3, #0
8000144c:	0a000002 	beq	8000145c <_Z15HeapValidatePtrPKc+0x24>
80001450:	e1a01000 	mov	r1, r0
80001454:	e5930000 	ldr	r0, [r3]
80001458:	eaffffb5 	b	80001334 <_Z15HeapValidateHdrP13KHeapHeader_tPKc>
8000145c:	e305154c 	movw	r1, #21836	; 0x554c
80001460:	e92d4010 	push	{r4, lr}
80001464:	e3481000 	movt	r1, #32768	; 0x8000
80001468:	ebfffdc5 	bl	80000b84 <_Z9HeapErrorPKcS0_>

8000146c <IRQHandler>:
8000146c:	e92d4010 	push	{r4, lr}
80001470:	e1a04000 	mov	r4, r0
80001474:	e305056c 	movw	r0, #21868	; 0x556c
80001478:	e3480000 	movt	r0, #32768	; 0x8000
8000147c:	eb000b1d 	bl	800040f8 <_Z7kprintfPKcz>
80001480:	e1a00004 	mov	r0, r4
80001484:	e8bd4010 	pop	{r4, lr}
80001488:	ea000094 	b	800016e0 <IsrHandler>

8000148c <IRQTarget>:
8000148c:	e24ee004 	sub	lr, lr, #4
80001490:	f96d0513 	srsdb	sp!, #19
80001494:	f10e01d3 	cpsid	aif,#19
80001498:	e92d1fff 	push	{r0, r1, r2, r3, r4, r5, r6, r7, r8, r9, sl, fp, ip}
8000149c:	e3a00012 	mov	r0, #18
800014a0:	e52d0004 	push	{r0}		; (str r0, [sp, #-4]!)
800014a4:	e52dd004 	push	{sp}		; (str sp, [sp, #-4]!)
800014a8:	e52de004 	push	{lr}		; (str lr, [sp, #-4]!)
800014ac:	e24dd008 	sub	sp, sp, #8
800014b0:	e8cd6000 	stmia	sp, {sp, lr}^
800014b4:	e1a0000d 	mov	r0, sp
800014b8:	ebffffeb 	bl	8000146c <IRQHandler>
800014bc:	e8dd6000 	ldm	sp, {sp, lr}^
800014c0:	e28dd008 	add	sp, sp, #8
800014c4:	e49de004 	pop	{lr}		; (ldr lr, [sp], #4)
800014c8:	e28dd004 	add	sp, sp, #4
800014cc:	e49d0004 	pop	{r0}		; (ldr r0, [sp], #4)
800014d0:	e8bd1fff 	pop	{r0, r1, r2, r3, r4, r5, r6, r7, r8, r9, sl, fp, ip}
800014d4:	f8bd0a00 	rfeia	sp!

800014d8 <_Z8IdtBuildv>:
800014d8:	e92d4070 	push	{r4, r5, r6, lr}
800014dc:	eb000041 	bl	800015e8 <IdtSetAddr>
800014e0:	e3083008 	movw	r3, #32776	; 0x8008
800014e4:	e3a02018 	mov	r2, #24
800014e8:	e3483000 	movt	r3, #32768	; 0x8000
800014ec:	e3036ba8 	movw	r6, #15272	; 0x3ba8
800014f0:	e3486000 	movt	r6, #32768	; 0x8000
800014f4:	e3035f4c 	movw	r5, #16204	; 0x3f4c
800014f8:	e5933000 	ldr	r3, [r3]
800014fc:	e3034d90 	movw	r4, #15760	; 0x3d90
80001500:	e3485000 	movt	r5, #32768	; 0x8000
80001504:	e302e1b8 	movw	lr, #8632	; 0x21b8
80001508:	e5c32000 	strb	r2, [r3]
8000150c:	e300c064 	movw	ip, #100	; 0x64
80001510:	e5c32004 	strb	r2, [r3, #4]
80001514:	e301048c 	movw	r0, #5260	; 0x148c
80001518:	e5c32008 	strb	r2, [r3, #8]
8000151c:	e3001110 	movw	r1, #272	; 0x110
80001520:	e5c3200c 	strb	r2, [r3, #12]
80001524:	e5c32010 	strb	r2, [r3, #16]
80001528:	e5c32014 	strb	r2, [r3, #20]
8000152c:	e5c32018 	strb	r2, [r3, #24]
80001530:	e5c3201c 	strb	r2, [r3, #28]
80001534:	e3e0200f 	mvn	r2, #15
80001538:	e5c32001 	strb	r2, [r3, #1]
8000153c:	e5c32005 	strb	r2, [r3, #5]
80001540:	e5c32009 	strb	r2, [r3, #9]
80001544:	e5c3200d 	strb	r2, [r3, #13]
80001548:	e5c32011 	strb	r2, [r3, #17]
8000154c:	e5c32015 	strb	r2, [r3, #21]
80001550:	e5c32019 	strb	r2, [r3, #25]
80001554:	e5c3201d 	strb	r2, [r3, #29]
80001558:	e3e02060 	mvn	r2, #96	; 0x60
8000155c:	e5c32002 	strb	r2, [r3, #2]
80001560:	e5c32006 	strb	r2, [r3, #6]
80001564:	e5c3200a 	strb	r2, [r3, #10]
80001568:	e5c3200e 	strb	r2, [r3, #14]
8000156c:	e5c32012 	strb	r2, [r3, #18]
80001570:	e5c32016 	strb	r2, [r3, #22]
80001574:	e5c3201a 	strb	r2, [r3, #26]
80001578:	e5c3201e 	strb	r2, [r3, #30]
8000157c:	e3e0201a 	mvn	r2, #26
80001580:	e5c32003 	strb	r2, [r3, #3]
80001584:	e5c32007 	strb	r2, [r3, #7]
80001588:	e5c3200b 	strb	r2, [r3, #11]
8000158c:	e5c3200f 	strb	r2, [r3, #15]
80001590:	e5c32013 	strb	r2, [r3, #19]
80001594:	e5c32017 	strb	r2, [r3, #23]
80001598:	e5c3201b 	strb	r2, [r3, #27]
8000159c:	e3484000 	movt	r4, #32768	; 0x8000
800015a0:	e5c3201f 	strb	r2, [r3, #31]
800015a4:	e3a02000 	mov	r2, #0
800015a8:	e348e000 	movt	lr, #32768	; 0x8000
800015ac:	e348c000 	movt	ip, #32768	; 0x8000
800015b0:	e3480000 	movt	r0, #32768	; 0x8000
800015b4:	e3481000 	movt	r1, #32768	; 0x8000
800015b8:	e5836020 	str	r6, [r3, #32]
800015bc:	e5835024 	str	r5, [r3, #36]	; 0x24
800015c0:	e5834028 	str	r4, [r3, #40]	; 0x28
800015c4:	e583e02c 	str	lr, [r3, #44]	; 0x2c
800015c8:	e583c030 	str	ip, [r3, #48]	; 0x30
800015cc:	e5830038 	str	r0, [r3, #56]	; 0x38
800015d0:	e583103c 	str	r1, [r3, #60]	; 0x3c
800015d4:	e5c32034 	strb	r2, [r3, #52]	; 0x34
800015d8:	e5c32035 	strb	r2, [r3, #53]	; 0x35
800015dc:	e5c32036 	strb	r2, [r3, #54]	; 0x36
800015e0:	e5c32037 	strb	r2, [r3, #55]	; 0x37
800015e4:	e8bd8070 	pop	{r4, r5, r6, pc}

800015e8 <IdtSetAddr>:
800015e8:	ee110f10 	mrc	15, 0, r0, cr1, cr0, {0}
800015ec:	e3c00a02 	bic	r0, r0, #8192	; 0x2000
800015f0:	ee010f10 	mcr	15, 0, r0, cr1, cr0, {0}
800015f4:	e30f0f40 	movw	r0, #65344	; 0xff40
800015f8:	e1a00800 	lsl	r0, r0, #16
800015fc:	e2800a01 	add	r0, r0, #4096	; 0x1000
80001600:	ee0c0f10 	mcr	15, 0, r0, cr12, cr0, {0}
80001604:	e1a0f00e 	mov	pc, lr

80001608 <_Z12IsrDumpStateP9isrRegs_t>:
80001608:	e92d4010 	push	{r4, lr}
8000160c:	e1a04000 	mov	r4, r0
80001610:	e3050570 	movw	r0, #21872	; 0x5570
80001614:	e1a01004 	mov	r1, r4
80001618:	e3480000 	movt	r0, #32768	; 0x8000
8000161c:	eb000ab5 	bl	800040f8 <_Z7kprintfPKcz>
80001620:	e594301c 	ldr	r3, [r4, #28]
80001624:	e3050580 	movw	r0, #21888	; 0x5580
80001628:	e5942018 	ldr	r2, [r4, #24]
8000162c:	e5941014 	ldr	r1, [r4, #20]
80001630:	e3480000 	movt	r0, #32768	; 0x8000
80001634:	eb000aaf 	bl	800040f8 <_Z7kprintfPKcz>
80001638:	e5943028 	ldr	r3, [r4, #40]	; 0x28
8000163c:	e305059c 	movw	r0, #21916	; 0x559c
80001640:	e5942024 	ldr	r2, [r4, #36]	; 0x24
80001644:	e5941020 	ldr	r1, [r4, #32]
80001648:	e3480000 	movt	r0, #32768	; 0x8000
8000164c:	eb000aa9 	bl	800040f8 <_Z7kprintfPKcz>
80001650:	e5943034 	ldr	r3, [r4, #52]	; 0x34
80001654:	e30505b8 	movw	r0, #21944	; 0x55b8
80001658:	e5942030 	ldr	r2, [r4, #48]	; 0x30
8000165c:	e594102c 	ldr	r1, [r4, #44]	; 0x2c
80001660:	e3480000 	movt	r0, #32768	; 0x8000
80001664:	eb000aa3 	bl	800040f8 <_Z7kprintfPKcz>
80001668:	e5943040 	ldr	r3, [r4, #64]	; 0x40
8000166c:	e30505d4 	movw	r0, #21972	; 0x55d4
80001670:	e594203c 	ldr	r2, [r4, #60]	; 0x3c
80001674:	e5941038 	ldr	r1, [r4, #56]	; 0x38
80001678:	e3480000 	movt	r0, #32768	; 0x8000
8000167c:	eb000a9d 	bl	800040f8 <_Z7kprintfPKcz>
80001680:	e5943048 	ldr	r3, [r4, #72]	; 0x48
80001684:	e30505f0 	movw	r0, #22000	; 0x55f0
80001688:	e5942008 	ldr	r2, [r4, #8]
8000168c:	e5941044 	ldr	r1, [r4, #68]	; 0x44
80001690:	e3480000 	movt	r0, #32768	; 0x8000
80001694:	eb000a97 	bl	800040f8 <_Z7kprintfPKcz>
80001698:	e5942010 	ldr	r2, [r4, #16]
8000169c:	e3050610 	movw	r0, #22032	; 0x5610
800016a0:	e594104c 	ldr	r1, [r4, #76]	; 0x4c
800016a4:	e3480000 	movt	r0, #32768	; 0x8000
800016a8:	eb000a92 	bl	800040f8 <_Z7kprintfPKcz>
800016ac:	e305062c 	movw	r0, #22060	; 0x562c
800016b0:	e3480000 	movt	r0, #32768	; 0x8000
800016b4:	eb000a8f 	bl	800040f8 <_Z7kprintfPKcz>
800016b8:	e5941004 	ldr	r1, [r4, #4]
800016bc:	e3050648 	movw	r0, #22088	; 0x5648
800016c0:	e5942000 	ldr	r2, [r4]
800016c4:	e3480000 	movt	r0, #32768	; 0x8000
800016c8:	eb000a8a 	bl	800040f8 <_Z7kprintfPKcz>
800016cc:	e594100c 	ldr	r1, [r4, #12]
800016d0:	e3050664 	movw	r0, #22116	; 0x5664
800016d4:	e3480000 	movt	r0, #32768	; 0x8000
800016d8:	e8bd4010 	pop	{r4, lr}
800016dc:	ea000a85 	b	800040f8 <_Z7kprintfPKcz>

800016e0 <IsrHandler>:
800016e0:	e3a03a0b 	mov	r3, #45056	; 0xb000
800016e4:	e34f3200 	movt	r3, #61952	; 0xf200
800016e8:	e92d4070 	push	{r4, r5, r6, lr}
800016ec:	e1a06000 	mov	r6, r0
800016f0:	e5934200 	ldr	r4, [r3, #512]	; 0x200
800016f4:	e3050670 	movw	r0, #22128	; 0x5670
800016f8:	e3480000 	movt	r0, #32768	; 0x8000
800016fc:	e1a01004 	mov	r1, r4
80001700:	eb000a7c 	bl	800040f8 <_Z7kprintfPKcz>
80001704:	e3140601 	tst	r4, #1048576	; 0x100000
80001708:	1a00003f 	bne	8000180c <IsrHandler+0x12c>
8000170c:	e3140702 	tst	r4, #524288	; 0x80000
80001710:	0a00000d 	beq	8000174c <IsrHandler+0x6c>
80001714:	e3050684 	movw	r0, #22148	; 0x5684
80001718:	e3a01039 	mov	r1, #57	; 0x39
8000171c:	e3480000 	movt	r0, #32768	; 0x8000
80001720:	eb000a74 	bl	800040f8 <_Z7kprintfPKcz>
80001724:	e30f3000 	movw	r3, #61440	; 0xf000
80001728:	e3483001 	movt	r3, #32769	; 0x8001
8000172c:	e59340e4 	ldr	r4, [r3, #228]	; 0xe4
80001730:	e3540000 	cmp	r4, #0
80001734:	1a000052 	bne	80001884 <IsrHandler+0x1a4>
80001738:	e3a03a01 	mov	r3, #4096	; 0x1000
8000173c:	e3e02000 	mvn	r2, #0
80001740:	e34f3220 	movt	r3, #61984	; 0xf220
80001744:	e5832044 	str	r2, [r3, #68]	; 0x44
80001748:	e8bd8070 	pop	{r4, r5, r6, pc}
8000174c:	e3140701 	tst	r4, #262144	; 0x40000
80001750:	1a000040 	bne	80001858 <IsrHandler+0x178>
80001754:	e3140802 	tst	r4, #131072	; 0x20000
80001758:	1a00004b 	bne	8000188c <IsrHandler+0x1ac>
8000175c:	e3140801 	tst	r4, #65536	; 0x10000
80001760:	1a000054 	bne	800018b8 <IsrHandler+0x1d8>
80001764:	e3140902 	tst	r4, #32768	; 0x8000
80001768:	1a00005d 	bne	800018e4 <IsrHandler+0x204>
8000176c:	e3140901 	tst	r4, #16384	; 0x4000
80001770:	1a000066 	bne	80001910 <IsrHandler+0x230>
80001774:	e3140a02 	tst	r4, #8192	; 0x2000
80001778:	1a00006f 	bne	8000193c <IsrHandler+0x25c>
8000177c:	e3140a01 	tst	r4, #4096	; 0x1000
80001780:	1a000078 	bne	80001968 <IsrHandler+0x288>
80001784:	e3140b02 	tst	r4, #2048	; 0x800
80001788:	1a000081 	bne	80001994 <IsrHandler+0x2b4>
8000178c:	e2142b01 	ands	r2, r4, #1024	; 0x400
80001790:	1a00008a 	bne	800019c0 <IsrHandler+0x2e0>
80001794:	e2145c02 	ands	r5, r4, #512	; 0x200
80001798:	0a000093 	beq	800019ec <IsrHandler+0x30c>
8000179c:	e3a03a0b 	mov	r3, #45056	; 0xb000
800017a0:	e1a05002 	mov	r5, r2
800017a4:	e34f3200 	movt	r3, #61952	; 0xf200
800017a8:	e3a02001 	mov	r2, #1
800017ac:	e5933208 	ldr	r3, [r3, #520]	; 0x208
800017b0:	ea000002 	b	800017c0 <IsrHandler+0xe0>
800017b4:	e2855001 	add	r5, r5, #1
800017b8:	e3550020 	cmp	r5, #32
800017bc:	08bd8070 	popeq	{r4, r5, r6, pc}
800017c0:	e0131512 	ands	r1, r3, r2, lsl r5
800017c4:	0afffffa 	beq	800017b4 <IsrHandler+0xd4>
800017c8:	e2855020 	add	r5, r5, #32
800017cc:	e3050684 	movw	r0, #22148	; 0x5684
800017d0:	e3480000 	movt	r0, #32768	; 0x8000
800017d4:	e1a01005 	mov	r1, r5
800017d8:	eb000a46 	bl	800040f8 <_Z7kprintfPKcz>
800017dc:	e30f3000 	movw	r3, #61440	; 0xf000
800017e0:	e3483001 	movt	r3, #32769	; 0x8001
800017e4:	e7934105 	ldr	r4, [r3, r5, lsl #2]
800017e8:	e3540000 	cmp	r4, #0
800017ec:	1a000010 	bne	80001834 <IsrHandler+0x154>
800017f0:	e3550039 	cmp	r5, #57	; 0x39
800017f4:	0affffcf 	beq	80001738 <IsrHandler+0x58>
800017f8:	e30506ec 	movw	r0, #22252	; 0x56ec
800017fc:	e1a01005 	mov	r1, r5
80001800:	e3480000 	movt	r0, #32768	; 0x8000
80001804:	e8bd4070 	pop	{r4, r5, r6, lr}
80001808:	ea000a3a 	b	800040f8 <_Z7kprintfPKcz>
8000180c:	e3050684 	movw	r0, #22148	; 0x5684
80001810:	e3a0103e 	mov	r1, #62	; 0x3e
80001814:	e3480000 	movt	r0, #32768	; 0x8000
80001818:	e3a0503e 	mov	r5, #62	; 0x3e
8000181c:	eb000a35 	bl	800040f8 <_Z7kprintfPKcz>
80001820:	e30f3000 	movw	r3, #61440	; 0xf000
80001824:	e3483001 	movt	r3, #32769	; 0x8001
80001828:	e59340f8 	ldr	r4, [r3, #248]	; 0xf8
8000182c:	e3540000 	cmp	r4, #0
80001830:	0afffff0 	beq	800017f8 <IsrHandler+0x118>
80001834:	e30506cc 	movw	r0, #22220	; 0x56cc
80001838:	e1a01005 	mov	r1, r5
8000183c:	e3480000 	movt	r0, #32768	; 0x8000
80001840:	e1a02004 	mov	r2, r4
80001844:	eb000a2b 	bl	800040f8 <_Z7kprintfPKcz>
80001848:	e1a00006 	mov	r0, r6
8000184c:	e1a03004 	mov	r3, r4
80001850:	e8bd4070 	pop	{r4, r5, r6, lr}
80001854:	e12fff13 	bx	r3
80001858:	e3050684 	movw	r0, #22148	; 0x5684
8000185c:	e3a01038 	mov	r1, #56	; 0x38
80001860:	e3480000 	movt	r0, #32768	; 0x8000
80001864:	e3a05038 	mov	r5, #56	; 0x38
80001868:	eb000a22 	bl	800040f8 <_Z7kprintfPKcz>
8000186c:	e30f3000 	movw	r3, #61440	; 0xf000
80001870:	e3483001 	movt	r3, #32769	; 0x8001
80001874:	e59340e0 	ldr	r4, [r3, #224]	; 0xe0
80001878:	e3540000 	cmp	r4, #0
8000187c:	0affffdd 	beq	800017f8 <IsrHandler+0x118>
80001880:	eaffffeb 	b	80001834 <IsrHandler+0x154>
80001884:	e3a05039 	mov	r5, #57	; 0x39
80001888:	eaffffe9 	b	80001834 <IsrHandler+0x154>
8000188c:	e3050684 	movw	r0, #22148	; 0x5684
80001890:	e3a01037 	mov	r1, #55	; 0x37
80001894:	e3480000 	movt	r0, #32768	; 0x8000
80001898:	e3a05037 	mov	r5, #55	; 0x37
8000189c:	eb000a15 	bl	800040f8 <_Z7kprintfPKcz>
800018a0:	e30f3000 	movw	r3, #61440	; 0xf000
800018a4:	e3483001 	movt	r3, #32769	; 0x8001
800018a8:	e59340dc 	ldr	r4, [r3, #220]	; 0xdc
800018ac:	e3540000 	cmp	r4, #0
800018b0:	0affffd0 	beq	800017f8 <IsrHandler+0x118>
800018b4:	eaffffde 	b	80001834 <IsrHandler+0x154>
800018b8:	e3050684 	movw	r0, #22148	; 0x5684
800018bc:	e3a01036 	mov	r1, #54	; 0x36
800018c0:	e3480000 	movt	r0, #32768	; 0x8000
800018c4:	e3a05036 	mov	r5, #54	; 0x36
800018c8:	eb000a0a 	bl	800040f8 <_Z7kprintfPKcz>
800018cc:	e30f3000 	movw	r3, #61440	; 0xf000
800018d0:	e3483001 	movt	r3, #32769	; 0x8001
800018d4:	e59340d8 	ldr	r4, [r3, #216]	; 0xd8
800018d8:	e3540000 	cmp	r4, #0
800018dc:	0affffc5 	beq	800017f8 <IsrHandler+0x118>
800018e0:	eaffffd3 	b	80001834 <IsrHandler+0x154>
800018e4:	e3050684 	movw	r0, #22148	; 0x5684
800018e8:	e3a01035 	mov	r1, #53	; 0x35
800018ec:	e3480000 	movt	r0, #32768	; 0x8000
800018f0:	e3a05035 	mov	r5, #53	; 0x35
800018f4:	eb0009ff 	bl	800040f8 <_Z7kprintfPKcz>
800018f8:	e30f3000 	movw	r3, #61440	; 0xf000
800018fc:	e3483001 	movt	r3, #32769	; 0x8001
80001900:	e59340d4 	ldr	r4, [r3, #212]	; 0xd4
80001904:	e3540000 	cmp	r4, #0
80001908:	0affffba 	beq	800017f8 <IsrHandler+0x118>
8000190c:	eaffffc8 	b	80001834 <IsrHandler+0x154>
80001910:	e3050684 	movw	r0, #22148	; 0x5684
80001914:	e3a01013 	mov	r1, #19
80001918:	e3480000 	movt	r0, #32768	; 0x8000
8000191c:	e3a05013 	mov	r5, #19
80001920:	eb0009f4 	bl	800040f8 <_Z7kprintfPKcz>
80001924:	e30f3000 	movw	r3, #61440	; 0xf000
80001928:	e3483001 	movt	r3, #32769	; 0x8001
8000192c:	e593404c 	ldr	r4, [r3, #76]	; 0x4c
80001930:	e3540000 	cmp	r4, #0
80001934:	0affffaf 	beq	800017f8 <IsrHandler+0x118>
80001938:	eaffffbd 	b	80001834 <IsrHandler+0x154>
8000193c:	e3050684 	movw	r0, #22148	; 0x5684
80001940:	e3a01012 	mov	r1, #18
80001944:	e3480000 	movt	r0, #32768	; 0x8000
80001948:	e3a05012 	mov	r5, #18
8000194c:	eb0009e9 	bl	800040f8 <_Z7kprintfPKcz>
80001950:	e30f3000 	movw	r3, #61440	; 0xf000
80001954:	e3483001 	movt	r3, #32769	; 0x8001
80001958:	e5934048 	ldr	r4, [r3, #72]	; 0x48
8000195c:	e3540000 	cmp	r4, #0
80001960:	0affffa4 	beq	800017f8 <IsrHandler+0x118>
80001964:	eaffffb2 	b	80001834 <IsrHandler+0x154>
80001968:	e3050684 	movw	r0, #22148	; 0x5684
8000196c:	e3a0100a 	mov	r1, #10
80001970:	e3480000 	movt	r0, #32768	; 0x8000
80001974:	e3a0500a 	mov	r5, #10
80001978:	eb0009de 	bl	800040f8 <_Z7kprintfPKcz>
8000197c:	e30f3000 	movw	r3, #61440	; 0xf000
80001980:	e3483001 	movt	r3, #32769	; 0x8001
80001984:	e5934028 	ldr	r4, [r3, #40]	; 0x28
80001988:	e3540000 	cmp	r4, #0
8000198c:	0affff99 	beq	800017f8 <IsrHandler+0x118>
80001990:	eaffffa7 	b	80001834 <IsrHandler+0x154>
80001994:	e3050684 	movw	r0, #22148	; 0x5684
80001998:	e3a01009 	mov	r1, #9
8000199c:	e3480000 	movt	r0, #32768	; 0x8000
800019a0:	e3a05009 	mov	r5, #9
800019a4:	eb0009d3 	bl	800040f8 <_Z7kprintfPKcz>
800019a8:	e30f3000 	movw	r3, #61440	; 0xf000
800019ac:	e3483001 	movt	r3, #32769	; 0x8001
800019b0:	e5934024 	ldr	r4, [r3, #36]	; 0x24
800019b4:	e3540000 	cmp	r4, #0
800019b8:	0affff8e 	beq	800017f8 <IsrHandler+0x118>
800019bc:	eaffff9c 	b	80001834 <IsrHandler+0x154>
800019c0:	e3050684 	movw	r0, #22148	; 0x5684
800019c4:	e3a01007 	mov	r1, #7
800019c8:	e3480000 	movt	r0, #32768	; 0x8000
800019cc:	e3a05007 	mov	r5, #7
800019d0:	eb0009c8 	bl	800040f8 <_Z7kprintfPKcz>
800019d4:	e30f3000 	movw	r3, #61440	; 0xf000
800019d8:	e3483001 	movt	r3, #32769	; 0x8001
800019dc:	e593401c 	ldr	r4, [r3, #28]
800019e0:	e3540000 	cmp	r4, #0
800019e4:	0affff83 	beq	800017f8 <IsrHandler+0x118>
800019e8:	eaffff91 	b	80001834 <IsrHandler+0x154>
800019ec:	e3140c01 	tst	r4, #256	; 0x100
800019f0:	0a000013 	beq	80001a44 <IsrHandler+0x364>
800019f4:	e3a03a0b 	mov	r3, #45056	; 0xb000
800019f8:	e3a02001 	mov	r2, #1
800019fc:	e34f3200 	movt	r3, #61952	; 0xf200
80001a00:	e5933208 	ldr	r3, [r3, #520]	; 0x208
80001a04:	ea000002 	b	80001a14 <IsrHandler+0x334>
80001a08:	e2855001 	add	r5, r5, #1
80001a0c:	e3550020 	cmp	r5, #32
80001a10:	08bd8070 	popeq	{r4, r5, r6, pc}
80001a14:	e0131512 	ands	r1, r3, r2, lsl r5
80001a18:	0afffffa 	beq	80001a08 <IsrHandler+0x328>
80001a1c:	e3050684 	movw	r0, #22148	; 0x5684
80001a20:	e1a01005 	mov	r1, r5
80001a24:	e3480000 	movt	r0, #32768	; 0x8000
80001a28:	eb0009b2 	bl	800040f8 <_Z7kprintfPKcz>
80001a2c:	e30f3000 	movw	r3, #61440	; 0xf000
80001a30:	e3483001 	movt	r3, #32769	; 0x8001
80001a34:	e7934105 	ldr	r4, [r3, r5, lsl #2]
80001a38:	e3540000 	cmp	r4, #0
80001a3c:	1affff7c 	bne	80001834 <IsrHandler+0x154>
80001a40:	eaffff6c 	b	800017f8 <IsrHandler+0x118>
80001a44:	e3140080 	tst	r4, #128	; 0x80
80001a48:	0a00000a 	beq	80001a78 <IsrHandler+0x398>
80001a4c:	e3050684 	movw	r0, #22148	; 0x5684
80001a50:	e3a01047 	mov	r1, #71	; 0x47
80001a54:	e3480000 	movt	r0, #32768	; 0x8000
80001a58:	e3a05047 	mov	r5, #71	; 0x47
80001a5c:	eb0009a5 	bl	800040f8 <_Z7kprintfPKcz>
80001a60:	e30f3000 	movw	r3, #61440	; 0xf000
80001a64:	e3483001 	movt	r3, #32769	; 0x8001
80001a68:	e593411c 	ldr	r4, [r3, #284]	; 0x11c
80001a6c:	e3540000 	cmp	r4, #0
80001a70:	0affff60 	beq	800017f8 <IsrHandler+0x118>
80001a74:	eaffff6e 	b	80001834 <IsrHandler+0x154>
80001a78:	e3140040 	tst	r4, #64	; 0x40
80001a7c:	1a000016 	bne	80001adc <IsrHandler+0x3fc>
80001a80:	e3140020 	tst	r4, #32
80001a84:	1a000050 	bne	80001bcc <IsrHandler+0x4ec>
80001a88:	e3140010 	tst	r4, #16
80001a8c:	1a000043 	bne	80001ba0 <IsrHandler+0x4c0>
80001a90:	e3140008 	tst	r4, #8
80001a94:	1a000036 	bne	80001b74 <IsrHandler+0x494>
80001a98:	e3140004 	tst	r4, #4
80001a9c:	1a000029 	bne	80001b48 <IsrHandler+0x468>
80001aa0:	e3140002 	tst	r4, #2
80001aa4:	1a00001c 	bne	80001b1c <IsrHandler+0x43c>
80001aa8:	e3140001 	tst	r4, #1
80001aac:	0a000015 	beq	80001b08 <IsrHandler+0x428>
80001ab0:	e3050684 	movw	r0, #22148	; 0x5684
80001ab4:	e3a01040 	mov	r1, #64	; 0x40
80001ab8:	e3480000 	movt	r0, #32768	; 0x8000
80001abc:	e3a05040 	mov	r5, #64	; 0x40
80001ac0:	eb00098c 	bl	800040f8 <_Z7kprintfPKcz>
80001ac4:	e30f3000 	movw	r3, #61440	; 0xf000
80001ac8:	e3483001 	movt	r3, #32769	; 0x8001
80001acc:	e5934100 	ldr	r4, [r3, #256]	; 0x100
80001ad0:	e3540000 	cmp	r4, #0
80001ad4:	0affff47 	beq	800017f8 <IsrHandler+0x118>
80001ad8:	eaffff55 	b	80001834 <IsrHandler+0x154>
80001adc:	e3050684 	movw	r0, #22148	; 0x5684
80001ae0:	e3a01046 	mov	r1, #70	; 0x46
80001ae4:	e3480000 	movt	r0, #32768	; 0x8000
80001ae8:	e3a05046 	mov	r5, #70	; 0x46
80001aec:	eb000981 	bl	800040f8 <_Z7kprintfPKcz>
80001af0:	e30f3000 	movw	r3, #61440	; 0xf000
80001af4:	e3483001 	movt	r3, #32769	; 0x8001
80001af8:	e5934118 	ldr	r4, [r3, #280]	; 0x118
80001afc:	e3540000 	cmp	r4, #0
80001b00:	0affff3c 	beq	800017f8 <IsrHandler+0x118>
80001b04:	eaffff4a 	b	80001834 <IsrHandler+0x154>
80001b08:	e30506a0 	movw	r0, #22176	; 0x56a0
80001b0c:	e1a01004 	mov	r1, r4
80001b10:	e3480000 	movt	r0, #32768	; 0x8000
80001b14:	e8bd4070 	pop	{r4, r5, r6, lr}
80001b18:	ea000976 	b	800040f8 <_Z7kprintfPKcz>
80001b1c:	e3050684 	movw	r0, #22148	; 0x5684
80001b20:	e3a01041 	mov	r1, #65	; 0x41
80001b24:	e3480000 	movt	r0, #32768	; 0x8000
80001b28:	e3a05041 	mov	r5, #65	; 0x41
80001b2c:	eb000971 	bl	800040f8 <_Z7kprintfPKcz>
80001b30:	e30f3000 	movw	r3, #61440	; 0xf000
80001b34:	e3483001 	movt	r3, #32769	; 0x8001
80001b38:	e5934104 	ldr	r4, [r3, #260]	; 0x104
80001b3c:	e3540000 	cmp	r4, #0
80001b40:	0affff2c 	beq	800017f8 <IsrHandler+0x118>
80001b44:	eaffff3a 	b	80001834 <IsrHandler+0x154>
80001b48:	e3050684 	movw	r0, #22148	; 0x5684
80001b4c:	e3a01042 	mov	r1, #66	; 0x42
80001b50:	e3480000 	movt	r0, #32768	; 0x8000
80001b54:	e3a05042 	mov	r5, #66	; 0x42
80001b58:	eb000966 	bl	800040f8 <_Z7kprintfPKcz>
80001b5c:	e30f3000 	movw	r3, #61440	; 0xf000
80001b60:	e3483001 	movt	r3, #32769	; 0x8001
80001b64:	e5934108 	ldr	r4, [r3, #264]	; 0x108
80001b68:	e3540000 	cmp	r4, #0
80001b6c:	0affff21 	beq	800017f8 <IsrHandler+0x118>
80001b70:	eaffff2f 	b	80001834 <IsrHandler+0x154>
80001b74:	e3050684 	movw	r0, #22148	; 0x5684
80001b78:	e3a01043 	mov	r1, #67	; 0x43
80001b7c:	e3480000 	movt	r0, #32768	; 0x8000
80001b80:	e3a05043 	mov	r5, #67	; 0x43
80001b84:	eb00095b 	bl	800040f8 <_Z7kprintfPKcz>
80001b88:	e30f3000 	movw	r3, #61440	; 0xf000
80001b8c:	e3483001 	movt	r3, #32769	; 0x8001
80001b90:	e593410c 	ldr	r4, [r3, #268]	; 0x10c
80001b94:	e3540000 	cmp	r4, #0
80001b98:	0affff16 	beq	800017f8 <IsrHandler+0x118>
80001b9c:	eaffff24 	b	80001834 <IsrHandler+0x154>
80001ba0:	e3050684 	movw	r0, #22148	; 0x5684
80001ba4:	e3a01044 	mov	r1, #68	; 0x44
80001ba8:	e3480000 	movt	r0, #32768	; 0x8000
80001bac:	e3a05044 	mov	r5, #68	; 0x44
80001bb0:	eb000950 	bl	800040f8 <_Z7kprintfPKcz>
80001bb4:	e30f3000 	movw	r3, #61440	; 0xf000
80001bb8:	e3483001 	movt	r3, #32769	; 0x8001
80001bbc:	e5934110 	ldr	r4, [r3, #272]	; 0x110
80001bc0:	e3540000 	cmp	r4, #0
80001bc4:	0affff0b 	beq	800017f8 <IsrHandler+0x118>
80001bc8:	eaffff19 	b	80001834 <IsrHandler+0x154>
80001bcc:	e3050684 	movw	r0, #22148	; 0x5684
80001bd0:	e3a01045 	mov	r1, #69	; 0x45
80001bd4:	e3480000 	movt	r0, #32768	; 0x8000
80001bd8:	e3a05045 	mov	r5, #69	; 0x45
80001bdc:	eb000945 	bl	800040f8 <_Z7kprintfPKcz>
80001be0:	e30f3000 	movw	r3, #61440	; 0xf000
80001be4:	e3483001 	movt	r3, #32769	; 0x8001
80001be8:	e5934114 	ldr	r4, [r3, #276]	; 0x114
80001bec:	e3540000 	cmp	r4, #0
80001bf0:	0affff00 	beq	800017f8 <IsrHandler+0x118>
80001bf4:	eaffff0e 	b	80001834 <IsrHandler+0x154>

80001bf8 <_Z11IsrRegisterhPFvP9isrRegs_tE>:
80001bf8:	e92d4070 	push	{r4, r5, r6, lr}
80001bfc:	e1a04000 	mov	r4, r0
80001c00:	e1a06001 	mov	r6, r1
80001c04:	ebfff929 	bl	800000b0 <DisableInterrupts>
80001c08:	e30f3000 	movw	r3, #61440	; 0xf000
80001c0c:	e1a05000 	mov	r5, r0
80001c10:	e3483001 	movt	r3, #32769	; 0x8001
80001c14:	e7932104 	ldr	r2, [r3, r4, lsl #2]
80001c18:	e3520000 	cmp	r2, #0
80001c1c:	07836104 	streq	r6, [r3, r4, lsl #2]
80001c20:	0a000003 	beq	80001c34 <_Z11IsrRegisterhPFvP9isrRegs_tE+0x3c>
80001c24:	e3050708 	movw	r0, #22280	; 0x5708
80001c28:	e1a01004 	mov	r1, r4
80001c2c:	e3480000 	movt	r0, #32768	; 0x8000
80001c30:	eb000930 	bl	800040f8 <_Z7kprintfPKcz>
80001c34:	e1a00005 	mov	r0, r5
80001c38:	e8bd4070 	pop	{r4, r5, r6, lr}
80001c3c:	ea0007ed 	b	80003bf8 <RestoreInterrupts>

80001c40 <_Z13IsrUnregisterh>:
80001c40:	e92d4070 	push	{r4, r5, r6, lr}
80001c44:	e1a04000 	mov	r4, r0
80001c48:	ebfff918 	bl	800000b0 <DisableInterrupts>
80001c4c:	e30f3000 	movw	r3, #61440	; 0xf000
80001c50:	e1a05000 	mov	r5, r0
80001c54:	e3483001 	movt	r3, #32769	; 0x8001
80001c58:	e7932104 	ldr	r2, [r3, r4, lsl #2]
80001c5c:	e3520000 	cmp	r2, #0
80001c60:	13a02000 	movne	r2, #0
80001c64:	17832104 	strne	r2, [r3, r4, lsl #2]
80001c68:	0a000002 	beq	80001c78 <_Z13IsrUnregisterh+0x38>
80001c6c:	e1a00005 	mov	r0, r5
80001c70:	e8bd4070 	pop	{r4, r5, r6, lr}
80001c74:	ea0007df 	b	80003bf8 <RestoreInterrupts>
80001c78:	e3050760 	movw	r0, #22368	; 0x5760
80001c7c:	e1a01004 	mov	r1, r4
80001c80:	e3480000 	movt	r0, #32768	; 0x8000
80001c84:	eb00091b 	bl	800040f8 <_Z7kprintfPKcz>
80001c88:	e1a00005 	mov	r0, r5
80001c8c:	e8bd4070 	pop	{r4, r5, r6, lr}
80001c90:	ea0007d8 	b	80003bf8 <RestoreInterrupts>

80001c94 <_Z14MessageReceiveP9Message_t>:
80001c94:	e92d47f0 	push	{r4, r5, r6, r7, r8, r9, sl, lr}
80001c98:	e2506000 	subs	r6, r0, #0
80001c9c:	0a000055 	beq	80001df8 <_Z14MessageReceiveP9Message_t+0x164>
80001ca0:	e30f4c0c 	movw	r4, #64524	; 0xfc0c
80001ca4:	e30f5c0c 	movw	r5, #64524	; 0xfc0c
80001ca8:	e3484003 	movt	r4, #32771	; 0x8003
80001cac:	e3485001 	movt	r5, #32769	; 0x8001
80001cb0:	e5943000 	ldr	r3, [r4]
80001cb4:	ea000001 	b	80001cc0 <_Z14MessageReceiveP9Message_t+0x2c>
80001cb8:	e3a00006 	mov	r0, #6
80001cbc:	eb0006bf 	bl	800037c0 <_Z11ProcessWait12ProcStatus_t>
80001cc0:	e5943000 	ldr	r3, [r4]
80001cc4:	e7953103 	ldr	r3, [r5, r3, lsl #2]
80001cc8:	e593206d 	ldr	r2, [r3, #109]	; 0x6d
80001ccc:	e2833069 	add	r3, r3, #105	; 0x69
80001cd0:	e1520003 	cmp	r2, r3
80001cd4:	0afffff7 	beq	80001cb8 <_Z14MessageReceiveP9Message_t+0x24>
80001cd8:	e5943000 	ldr	r3, [r4]
80001cdc:	e3530902 	cmp	r3, #32768	; 0x8000
80001ce0:	8a000044 	bhi	80001df8 <_Z14MessageReceiveP9Message_t+0x164>
80001ce4:	e5943000 	ldr	r3, [r4]
80001ce8:	e7959103 	ldr	r9, [r5, r3, lsl #2]
80001cec:	e3590000 	cmp	r9, #0
80001cf0:	0a000040 	beq	80001df8 <_Z14MessageReceiveP9Message_t+0x164>
80001cf4:	e5941000 	ldr	r1, [r4]
80001cf8:	e2897049 	add	r7, r9, #73	; 0x49
80001cfc:	e3050134 	movw	r0, #20788	; 0x5134
80001d00:	e1a02007 	mov	r2, r7
80001d04:	e3480000 	movt	r0, #32768	; 0x8000
80001d08:	eb0008fa 	bl	800040f8 <_Z7kprintfPKcz>
80001d0c:	e3a02001 	mov	r2, #1
80001d10:	e3a01000 	mov	r1, #0
80001d14:	e1a00007 	mov	r0, r7
80001d18:	eb000805 	bl	80003d34 <SpinlockAtomicLock>
80001d1c:	e2508000 	subs	r8, r0, #0
80001d20:	1afffff9 	bne	80001d0c <_Z14MessageReceiveP9Message_t+0x78>
80001d24:	e599506d 	ldr	r5, [r9, #109]	; 0x6d
80001d28:	e5941000 	ldr	r1, [r4]
80001d2c:	e5953000 	ldr	r3, [r5]
80001d30:	e5952004 	ldr	r2, [r5, #4]
80001d34:	e589104d 	str	r1, [r9, #77]	; 0x4d
80001d38:	e5823000 	str	r3, [r2]
80001d3c:	e5832004 	str	r2, [r3, #4]
80001d40:	e5855000 	str	r5, [r5]
80001d44:	e5855004 	str	r5, [r5, #4]
80001d48:	e5994079 	ldr	r4, [r9, #121]	; 0x79
80001d4c:	e3540000 	cmp	r4, #0
80001d50:	0a00001e 	beq	80001dd0 <_Z14MessageReceiveP9Message_t+0x13c>
80001d54:	e595301c 	ldr	r3, [r5, #28]
80001d58:	e1a00007 	mov	r0, r7
80001d5c:	e5893079 	str	r3, [r9, #121]	; 0x79
80001d60:	eb0007fb 	bl	80003d54 <SpinlockClear>
80001d64:	e589804d 	str	r8, [r9, #77]	; 0x4d
80001d68:	e305015c 	movw	r0, #20828	; 0x515c
80001d6c:	e3480000 	movt	r0, #32768	; 0x8000
80001d70:	e1a01007 	mov	r1, r7
80001d74:	eb0008df 	bl	800040f8 <_Z7kprintfPKcz>
80001d78:	e1a00004 	mov	r0, r4
80001d7c:	ebfffbc2 	bl	80000c8c <_Z8HeapFreePv>
80001d80:	e5953008 	ldr	r3, [r5, #8]
80001d84:	e596001c 	ldr	r0, [r6, #28]
80001d88:	e595200c 	ldr	r2, [r5, #12]
80001d8c:	e5863008 	str	r3, [r6, #8]
80001d90:	e3500000 	cmp	r0, #0
80001d94:	e5953010 	ldr	r3, [r5, #16]
80001d98:	e1c620fc 	strd	r2, [r6, #12]
80001d9c:	e5953018 	ldr	r3, [r5, #24]
80001da0:	0a000005 	beq	80001dbc <_Z14MessageReceiveP9Message_t+0x128>
80001da4:	e5962018 	ldr	r2, [r6, #24]
80001da8:	e595101c 	ldr	r1, [r5, #28]
80001dac:	e1530002 	cmp	r3, r2
80001db0:	21a02003 	movcs	r2, r3
80001db4:	eb0008a3 	bl	80004048 <kMemMove>
80001db8:	e5953018 	ldr	r3, [r5, #24]
80001dbc:	e5863018 	str	r3, [r6, #24]
80001dc0:	e1a00005 	mov	r0, r5
80001dc4:	ebfffbb0 	bl	80000c8c <_Z8HeapFreePv>
80001dc8:	e1a00008 	mov	r0, r8
80001dcc:	e8bd87f0 	pop	{r4, r5, r6, r7, r8, r9, sl, pc}
80001dd0:	e595301c 	ldr	r3, [r5, #28]
80001dd4:	e1a00007 	mov	r0, r7
80001dd8:	e5893079 	str	r3, [r9, #121]	; 0x79
80001ddc:	eb0007dc 	bl	80003d54 <SpinlockClear>
80001de0:	e589804d 	str	r8, [r9, #77]	; 0x4d
80001de4:	e305015c 	movw	r0, #20828	; 0x515c
80001de8:	e3480000 	movt	r0, #32768	; 0x8000
80001dec:	e1a01007 	mov	r1, r7
80001df0:	eb0008c0 	bl	800040f8 <_Z7kprintfPKcz>
80001df4:	eaffffe1 	b	80001d80 <_Z14MessageReceiveP9Message_t+0xec>
80001df8:	e3e080fe 	mvn	r8, #254	; 0xfe
80001dfc:	eafffff1 	b	80001dc8 <_Z14MessageReceiveP9Message_t+0x134>

80001e00 <_Z11MessageSendjP9Message_t>:
80001e00:	e92d47f0 	push	{r4, r5, r6, r7, r8, r9, sl, lr}
80001e04:	e2515000 	subs	r5, r1, #0
80001e08:	0a00000a 	beq	80001e38 <_Z11MessageSendjP9Message_t+0x38>
80001e0c:	e1a08000 	mov	r8, r0
80001e10:	e3a01000 	mov	r1, #0
80001e14:	e3a00020 	mov	r0, #32
80001e18:	ebfffab6 	bl	800008f8 <_Z9HeapAllocjb>
80001e1c:	e5953018 	ldr	r3, [r5, #24]
80001e20:	e1a04000 	mov	r4, r0
80001e24:	e3530000 	cmp	r3, #0
80001e28:	1a000005 	bne	80001e44 <_Z11MessageSendjP9Message_t+0x44>
80001e2c:	e3500000 	cmp	r0, #0
80001e30:	0a000000 	beq	80001e38 <_Z11MessageSendjP9Message_t+0x38>
80001e34:	ebfffb94 	bl	80000c8c <_Z8HeapFreePv>
80001e38:	e3e050fe 	mvn	r5, #254	; 0xfe
80001e3c:	e1a00005 	mov	r0, r5
80001e40:	e8bd87f0 	pop	{r4, r5, r6, r7, r8, r9, sl, pc}
80001e44:	e1a00003 	mov	r0, r3
80001e48:	e3a01000 	mov	r1, #0
80001e4c:	ebfffaa9 	bl	800008f8 <_Z9HeapAllocjb>
80001e50:	e3500000 	cmp	r0, #0
80001e54:	13540000 	cmpne	r4, #0
80001e58:	e1a06000 	mov	r6, r0
80001e5c:	0a00003c 	beq	80001f54 <_Z11MessageSendjP9Message_t+0x154>
80001e60:	e5952018 	ldr	r2, [r5, #24]
80001e64:	e30f9c0c 	movw	r9, #64524	; 0xfc0c
80001e68:	e595300c 	ldr	r3, [r5, #12]
80001e6c:	e595c008 	ldr	ip, [r5, #8]
80001e70:	e5951010 	ldr	r1, [r5, #16]
80001e74:	e3489003 	movt	r9, #32771	; 0x8003
80001e78:	e5842018 	str	r2, [r4, #24]
80001e7c:	e5952018 	ldr	r2, [r5, #24]
80001e80:	e584300c 	str	r3, [r4, #12]
80001e84:	e5993000 	ldr	r3, [r9]
80001e88:	e3520000 	cmp	r2, #0
80001e8c:	e5844000 	str	r4, [r4]
80001e90:	e5844004 	str	r4, [r4, #4]
80001e94:	e584c008 	str	ip, [r4, #8]
80001e98:	e5841010 	str	r1, [r4, #16]
80001e9c:	e5843014 	str	r3, [r4, #20]
80001ea0:	1a000028 	bne	80001f48 <_Z11MessageSendjP9Message_t+0x148>
80001ea4:	e584601c 	str	r6, [r4, #28]
80001ea8:	e3580902 	cmp	r8, #32768	; 0x8000
80001eac:	8affffe1 	bhi	80001e38 <_Z11MessageSendjP9Message_t+0x38>
80001eb0:	e30f3c0c 	movw	r3, #64524	; 0xfc0c
80001eb4:	e3483001 	movt	r3, #32769	; 0x8001
80001eb8:	e7937108 	ldr	r7, [r3, r8, lsl #2]
80001ebc:	e3570000 	cmp	r7, #0
80001ec0:	0affffdc 	beq	80001e38 <_Z11MessageSendjP9Message_t+0x38>
80001ec4:	e5991000 	ldr	r1, [r9]
80001ec8:	e2876049 	add	r6, r7, #73	; 0x49
80001ecc:	e3050134 	movw	r0, #20788	; 0x5134
80001ed0:	e1a02006 	mov	r2, r6
80001ed4:	e3480000 	movt	r0, #32768	; 0x8000
80001ed8:	eb000886 	bl	800040f8 <_Z7kprintfPKcz>
80001edc:	e3a02001 	mov	r2, #1
80001ee0:	e3a01000 	mov	r1, #0
80001ee4:	e1a00006 	mov	r0, r6
80001ee8:	eb000791 	bl	80003d34 <SpinlockAtomicLock>
80001eec:	e2505000 	subs	r5, r0, #0
80001ef0:	1afffff9 	bne	80001edc <_Z11MessageSendjP9Message_t+0xdc>
80001ef4:	e5972069 	ldr	r2, [r7, #105]	; 0x69
80001ef8:	e1a03007 	mov	r3, r7
80001efc:	e5991000 	ldr	r1, [r9]
80001f00:	e1a00006 	mov	r0, r6
80001f04:	e587104d 	str	r1, [r7, #77]	; 0x4d
80001f08:	e5a34069 	str	r4, [r3, #105]!	; 0x69
80001f0c:	e1c420f0 	strd	r2, [r4]
80001f10:	e5824004 	str	r4, [r2, #4]
80001f14:	eb00078e 	bl	80003d54 <SpinlockClear>
80001f18:	e587504d 	str	r5, [r7, #77]	; 0x4d
80001f1c:	e305015c 	movw	r0, #20828	; 0x515c
80001f20:	e3480000 	movt	r0, #32768	; 0x8000
80001f24:	e1a01006 	mov	r1, r6
80001f28:	eb000872 	bl	800040f8 <_Z7kprintfPKcz>
80001f2c:	e597303c 	ldr	r3, [r7, #60]	; 0x3c
80001f30:	e3530006 	cmp	r3, #6
80001f34:	1affffc0 	bne	80001e3c <_Z11MessageSendjP9Message_t+0x3c>
80001f38:	e1a00008 	mov	r0, r8
80001f3c:	eb0002d3 	bl	80002a90 <_Z12ProcessReadyj>
80001f40:	e1a00005 	mov	r0, r5
80001f44:	e8bd87f0 	pop	{r4, r5, r6, r7, r8, r9, sl, pc}
80001f48:	e595101c 	ldr	r1, [r5, #28]
80001f4c:	eb00083d 	bl	80004048 <kMemMove>
80001f50:	eaffffd3 	b	80001ea4 <_Z11MessageSendjP9Message_t+0xa4>
80001f54:	e3540000 	cmp	r4, #0
80001f58:	0a000001 	beq	80001f64 <_Z11MessageSendjP9Message_t+0x164>
80001f5c:	e1a00004 	mov	r0, r4
80001f60:	ebfffb49 	bl	80000c8c <_Z8HeapFreePv>
80001f64:	e3560000 	cmp	r6, #0
80001f68:	0affffb2 	beq	80001e38 <_Z11MessageSendjP9Message_t+0x38>
80001f6c:	e1a00006 	mov	r0, r6
80001f70:	e3e050fe 	mvn	r5, #254	; 0xfe
80001f74:	ebfffb44 	bl	80000c8c <_Z8HeapFreePv>
80001f78:	e1a00005 	mov	r0, r5
80001f7c:	e8bd87f0 	pop	{r4, r5, r6, r7, r8, r9, sl, pc}

80001f80 <_ZL16MmuMakeTtl2Tablej>:
80001f80:	e92d4070 	push	{r4, r5, r6, lr}
80001f84:	e1a04000 	mov	r4, r0
80001f88:	eb00006f 	bl	8000214c <_Z13PmmAllocFramev>
80001f8c:	e1a04924 	lsr	r4, r4, #18
80001f90:	e3032ff0 	movw	r2, #16368	; 0x3ff0
80001f94:	e0022004 	and	r2, r2, r4
80001f98:	e3a01001 	mov	r1, #1
80001f9c:	e2824102 	add	r4, r2, #-2147483648	; 0x80000000
80001fa0:	e282e112 	add	lr, r2, #-2147483644	; 0x80000004
80001fa4:	e2844501 	add	r4, r4, #4194304	; 0x400000
80001fa8:	e28ee501 	add	lr, lr, #4194304	; 0x400000
80001fac:	e1a00100 	lsl	r0, r0, #2
80001fb0:	e282c122 	add	ip, r2, #-2147483640	; 0x80000008
80001fb4:	e5943000 	ldr	r3, [r4]
80001fb8:	e28cc501 	add	ip, ip, #4194304	; 0x400000
80001fbc:	e0805001 	add	r5, r0, r1
80001fc0:	e2822132 	add	r2, r2, #-2147483636	; 0x8000000c
80001fc4:	e7df3510 	bfi	r3, r0, #10, #22
80001fc8:	e2822501 	add	r2, r2, #4194304	; 0x400000
80001fcc:	e5843000 	str	r3, [r4]
80001fd0:	e7c13011 	bfi	r3, r1, #0, #2
80001fd4:	e5c43000 	strb	r3, [r4]
80001fd8:	e2804002 	add	r4, r0, #2
80001fdc:	e59e3000 	ldr	r3, [lr]
80001fe0:	e2800003 	add	r0, r0, #3
80001fe4:	e7df3515 	bfi	r3, r5, #10, #22
80001fe8:	e58e3000 	str	r3, [lr]
80001fec:	e7c13011 	bfi	r3, r1, #0, #2
80001ff0:	e5ce3000 	strb	r3, [lr]
80001ff4:	e59c3000 	ldr	r3, [ip]
80001ff8:	e7df3514 	bfi	r3, r4, #10, #22
80001ffc:	e58c3000 	str	r3, [ip]
80002000:	e7c13011 	bfi	r3, r1, #0, #2
80002004:	e5cc3000 	strb	r3, [ip]
80002008:	e5923000 	ldr	r3, [r2]
8000200c:	e7df3510 	bfi	r3, r0, #10, #22
80002010:	e5823000 	str	r3, [r2]
80002014:	e7c13011 	bfi	r3, r1, #0, #2
80002018:	e5c23000 	strb	r3, [r2]
8000201c:	e8bd8070 	pop	{r4, r5, r6, pc}

80002020 <_Z13MmuMapToFramejji>:
80002020:	e92d41f0 	push	{r4, r5, r6, r7, r8, lr}
80002024:	e3c05eff 	bic	r5, r0, #4080	; 0xff0
80002028:	e3c5500f 	bic	r5, r5, #15
8000202c:	e3550000 	cmp	r5, #0
80002030:	0a000037 	beq	80002114 <_Z13MmuMapToFramejji+0xf4>
80002034:	e1a07a25 	lsr	r7, r5, #20
80002038:	e1a06001 	mov	r6, r1
8000203c:	e1a04625 	lsr	r4, r5, #12
80002040:	e1a03107 	lsl	r3, r7, #2
80002044:	e2833102 	add	r3, r3, #-2147483648	; 0x80000000
80002048:	e2833501 	add	r3, r3, #4194304	; 0x400000
8000204c:	e5933000 	ldr	r3, [r3]
80002050:	e1b03523 	lsrs	r3, r3, #10
80002054:	0a00001a 	beq	800020c4 <_Z13MmuMapToFramejji+0xa4>
80002058:	e1a03104 	lsl	r3, r4, #2
8000205c:	e2833102 	add	r3, r3, #-2147483648	; 0x80000000
80002060:	e5d30000 	ldrb	r0, [r3]
80002064:	e2100003 	ands	r0, r0, #3
80002068:	1a000024 	bne	80002100 <_Z13MmuMapToFramejji+0xe0>
8000206c:	e593c000 	ldr	ip, [r3]
80002070:	e3a04001 	mov	r4, #1
80002074:	e3a0e002 	mov	lr, #2
80002078:	e7dfc616 	bfi	ip, r6, #12, #20
8000207c:	e7e7245c 	ubfx	r2, ip, #8, #8
80002080:	e6ef107c 	uxtb	r1, ip
80002084:	e583c000 	str	ip, [r3]
80002088:	e3822004 	orr	r2, r2, #4
8000208c:	e7c12090 	bfi	r2, r0, #1, #1
80002090:	e3811030 	orr	r1, r1, #48	; 0x30
80002094:	e5c31000 	strb	r1, [r3]
80002098:	e5c32001 	strb	r2, [r3, #1]
8000209c:	e1d320b0 	ldrh	r2, [r3]
800020a0:	e7c82314 	bfi	r2, r4, #6, #3
800020a4:	e7e71452 	ubfx	r1, r2, #8, #8
800020a8:	e7c32190 	bfi	r2, r0, #3, #1
800020ac:	e7c22110 	bfi	r2, r0, #2, #1
800020b0:	e7c31190 	bfi	r1, r0, #3, #1
800020b4:	e7c1201e 	bfi	r2, lr, #0, #2
800020b8:	e5c31001 	strb	r1, [r3, #1]
800020bc:	e5c32000 	strb	r2, [r3]
800020c0:	e8bd81f0 	pop	{r4, r5, r6, r7, r8, pc}
800020c4:	e1a00005 	mov	r0, r5
800020c8:	ebffffac 	bl	80001f80 <_ZL16MmuMakeTtl2Tablej>
800020cc:	e6ef0074 	uxtb	r0, r4
800020d0:	e1a00100 	lsl	r0, r0, #2
800020d4:	e2800102 	add	r0, r0, #-2147483648	; 0x80000000
800020d8:	e0800507 	add	r0, r0, r7, lsl #10
800020dc:	e1a03a20 	lsr	r3, r0, #20
800020e0:	e1a03103 	lsl	r3, r3, #2
800020e4:	e2833102 	add	r3, r3, #-2147483648	; 0x80000000
800020e8:	e2833501 	add	r3, r3, #4194304	; 0x400000
800020ec:	e5d33000 	ldrb	r3, [r3]
800020f0:	e3130003 	tst	r3, #3
800020f4:	1affffd7 	bne	80002058 <_Z13MmuMapToFramejji+0x38>
800020f8:	ebffffa0 	bl	80001f80 <_ZL16MmuMakeTtl2Tablej>
800020fc:	eaffffd5 	b	80002058 <_Z13MmuMapToFramejji+0x38>
80002100:	e30507d0 	movw	r0, #22480	; 0x57d0
80002104:	e1a01005 	mov	r1, r5
80002108:	e3480000 	movt	r0, #32768	; 0x8000
8000210c:	e8bd41f0 	pop	{r4, r5, r6, r7, r8, lr}
80002110:	ea0007f8 	b	800040f8 <_Z7kprintfPKcz>
80002114:	e305079c 	movw	r0, #22428	; 0x579c
80002118:	e3480000 	movt	r0, #32768	; 0x8000
8000211c:	e8bd41f0 	pop	{r4, r5, r6, r7, r8, lr}
80002120:	ea0007f4 	b	800040f8 <_Z7kprintfPKcz>

80002124 <_Z12MmuUnmapPagej>:
80002124:	e1a03620 	lsr	r3, r0, #12
80002128:	e1a03103 	lsl	r3, r3, #2
8000212c:	e2833102 	add	r3, r3, #-2147483648	; 0x80000000
80002130:	e5d30000 	ldrb	r0, [r3]
80002134:	e2100003 	ands	r0, r0, #3
80002138:	13a02000 	movne	r2, #0
8000213c:	15930000 	ldrne	r0, [r3]
80002140:	15832000 	strne	r2, [r3]
80002144:	17f30650 	ubfxne	r0, r0, #12, #20
80002148:	e12fff1e 	bx	lr

8000214c <_Z13PmmAllocFramev>:
8000214c:	e52de004 	push	{lr}		; (str lr, [sp, #-4]!)
80002150:	e24dd024 	sub	sp, sp, #36	; 0x24
80002154:	e3a02020 	mov	r2, #32
80002158:	e1a0000d 	mov	r0, sp
8000215c:	e3a01000 	mov	r1, #0
80002160:	eb0007c3 	bl	80004074 <kMemSetB>
80002164:	e3a03005 	mov	r3, #5
80002168:	e1a0100d 	mov	r1, sp
8000216c:	e58d3008 	str	r3, [sp, #8]
80002170:	e3a00002 	mov	r0, #2
80002174:	ebffff21 	bl	80001e00 <_Z11MessageSendjP9Message_t>
80002178:	e1a0000d 	mov	r0, sp
8000217c:	ebfffec4 	bl	80001c94 <_Z14MessageReceiveP9Message_t>
80002180:	e59d0008 	ldr	r0, [sp, #8]
80002184:	e28dd024 	add	sp, sp, #36	; 0x24
80002188:	e49df004 	pop	{pc}		; (ldr pc, [sp], #4)

8000218c <_Z8PmmStartP8Module_t>:
8000218c:	e3050800 	movw	r0, #22528	; 0x5800
80002190:	e3480000 	movt	r0, #32768	; 0x8000
80002194:	ea0007d7 	b	800040f8 <_Z7kprintfPKcz>

80002198 <PrefetchHandler>:
80002198:	e92d4010 	push	{r4, lr}
8000219c:	e1a04000 	mov	r4, r0
800021a0:	e3050828 	movw	r0, #22568	; 0x5828
800021a4:	e3480000 	movt	r0, #32768	; 0x8000
800021a8:	eb0007d2 	bl	800040f8 <_Z7kprintfPKcz>
800021ac:	e1a00004 	mov	r0, r4
800021b0:	ebfffd14 	bl	80001608 <_Z12IsrDumpStateP9isrRegs_t>
800021b4:	eb00085a 	bl	80004324 <Halt>

800021b8 <PrefetchTarget>:
800021b8:	e24ee004 	sub	lr, lr, #4
800021bc:	f96d0513 	srsdb	sp!, #19
800021c0:	f10e01d3 	cpsid	aif,#19
800021c4:	e92d1fff 	push	{r0, r1, r2, r3, r4, r5, r6, r7, r8, r9, sl, fp, ip}
800021c8:	e3a00017 	mov	r0, #23
800021cc:	e52d0004 	push	{r0}		; (str r0, [sp, #-4]!)
800021d0:	e52dd004 	push	{sp}		; (str sp, [sp, #-4]!)
800021d4:	e52de004 	push	{lr}		; (str lr, [sp, #-4]!)
800021d8:	e24dd008 	sub	sp, sp, #8
800021dc:	e8cd6000 	stmia	sp, {sp, lr}^
800021e0:	e1a0000d 	mov	r0, sp
800021e4:	ebffffeb 	bl	80002198 <PrefetchHandler>
800021e8:	e8dd6000 	ldm	sp, {sp, lr}^
800021ec:	e28dd008 	add	sp, sp, #8
800021f0:	e49de004 	pop	{lr}		; (ldr lr, [sp], #4)
800021f4:	e28dd004 	add	sp, sp, #4
800021f8:	e49d0004 	pop	{r0}		; (ldr r0, [sp], #4)
800021fc:	e8bd1fff 	pop	{r0, r1, r2, r3, r4, r5, r6, r7, r8, r9, sl, fp, ip}
80002200:	f8bd0a00 	rfeia	sp!

80002204 <_ZL12SpinlockLockP10Spinlock_t>:
80002204:	e92d4070 	push	{r4, r5, r6, lr}
80002208:	e30f5c0c 	movw	r5, #64524	; 0xfc0c
8000220c:	e3485003 	movt	r5, #32771	; 0x8003
80002210:	e1a04000 	mov	r4, r0
80002214:	e3050134 	movw	r0, #20788	; 0x5134
80002218:	e1a02004 	mov	r2, r4
8000221c:	e3480000 	movt	r0, #32768	; 0x8000
80002220:	e5951000 	ldr	r1, [r5]
80002224:	eb0007b3 	bl	800040f8 <_Z7kprintfPKcz>
80002228:	e3a02001 	mov	r2, #1
8000222c:	e3a01000 	mov	r1, #0
80002230:	e1a00004 	mov	r0, r4
80002234:	eb0006be 	bl	80003d34 <SpinlockAtomicLock>
80002238:	e3500000 	cmp	r0, #0
8000223c:	1afffff9 	bne	80002228 <_ZL12SpinlockLockP10Spinlock_t+0x24>
80002240:	e5953000 	ldr	r3, [r5]
80002244:	e5843004 	str	r3, [r4, #4]
80002248:	e8bd8070 	pop	{r4, r5, r6, pc}

8000224c <_Z10ProcessEndv>:
8000224c:	e30f2c0c 	movw	r2, #64524	; 0xfc0c
80002250:	e30f3c0c 	movw	r3, #64524	; 0xfc0c
80002254:	e3482003 	movt	r2, #32771	; 0x8003
80002258:	e3483001 	movt	r3, #32769	; 0x8001
8000225c:	e5922000 	ldr	r2, [r2]
80002260:	e92d4080 	push	{r7, lr}
80002264:	e7934102 	ldr	r4, [r3, r2, lsl #2]
80002268:	e2848049 	add	r8, r4, #73	; 0x49
8000226c:	e2847051 	add	r7, r4, #81	; 0x51
80002270:	e1a00008 	mov	r0, r8
80002274:	ebffffe2 	bl	80002204 <_ZL12SpinlockLockP10Spinlock_t>
80002278:	e5943040 	ldr	r3, [r4, #64]	; 0x40
8000227c:	e2433001 	sub	r3, r3, #1
80002280:	e353001d 	cmp	r3, #29
80002284:	979ff103 	ldrls	pc, [pc, r3, lsl #2]
80002288:	ea000089 	b	800024b4 <_Z10ProcessEndv+0x268>
8000228c:	800023d4 	ldrdhi	r2, [r0], -r4
80002290:	800024b4 			; <UNDEFINED> instruction: 0x800024b4
80002294:	800024b4 			; <UNDEFINED> instruction: 0x800024b4
80002298:	800024b4 			; <UNDEFINED> instruction: 0x800024b4
8000229c:	8000240c 	andhi	r2, r0, ip, lsl #8
800022a0:	800024b4 			; <UNDEFINED> instruction: 0x800024b4
800022a4:	800024b4 			; <UNDEFINED> instruction: 0x800024b4
800022a8:	800024b4 			; <UNDEFINED> instruction: 0x800024b4
800022ac:	800024b4 			; <UNDEFINED> instruction: 0x800024b4
800022b0:	80002444 	andhi	r2, r0, r4, asr #8
800022b4:	800024b4 			; <UNDEFINED> instruction: 0x800024b4
800022b8:	800024b4 			; <UNDEFINED> instruction: 0x800024b4
800022bc:	800024b4 			; <UNDEFINED> instruction: 0x800024b4
800022c0:	800024b4 			; <UNDEFINED> instruction: 0x800024b4
800022c4:	800024b4 			; <UNDEFINED> instruction: 0x800024b4
800022c8:	800024b4 			; <UNDEFINED> instruction: 0x800024b4
800022cc:	800024b4 			; <UNDEFINED> instruction: 0x800024b4
800022d0:	800024b4 			; <UNDEFINED> instruction: 0x800024b4
800022d4:	800024b4 			; <UNDEFINED> instruction: 0x800024b4
800022d8:	8000247c 	andhi	r2, r0, ip, ror r4
800022dc:	800024b4 			; <UNDEFINED> instruction: 0x800024b4
800022e0:	800024b4 			; <UNDEFINED> instruction: 0x800024b4
800022e4:	800024b4 			; <UNDEFINED> instruction: 0x800024b4
800022e8:	800024b4 			; <UNDEFINED> instruction: 0x800024b4
800022ec:	800024b4 			; <UNDEFINED> instruction: 0x800024b4
800022f0:	800024b4 			; <UNDEFINED> instruction: 0x800024b4
800022f4:	800024b4 			; <UNDEFINED> instruction: 0x800024b4
800022f8:	800024b4 			; <UNDEFINED> instruction: 0x800024b4
800022fc:	800024b4 			; <UNDEFINED> instruction: 0x800024b4
80002300:	80002304 	andhi	r2, r0, r4, lsl #6
80002304:	e59f01cc 	ldr	r0, [pc, #460]	; 800024d8 <_Z10ProcessEndv+0x28c>
80002308:	ebffffbd 	bl	80002204 <_ZL12SpinlockLockP10Spinlock_t>
8000230c:	e5943051 	ldr	r3, [r4, #81]	; 0x51
80002310:	e5942055 	ldr	r2, [r4, #85]	; 0x55
80002314:	e59f01bc 	ldr	r0, [pc, #444]	; 800024d8 <_Z10ProcessEndv+0x28c>
80002318:	e5823000 	str	r3, [r2]
8000231c:	e5832004 	str	r2, [r3, #4]
80002320:	e5847051 	str	r7, [r4, #81]	; 0x51
80002324:	e5847055 	str	r7, [r4, #85]	; 0x55
80002328:	eb000689 	bl	80003d54 <SpinlockClear>
8000232c:	e3083200 	movw	r3, #33280	; 0x8200
80002330:	e305015c 	movw	r0, #20828	; 0x515c
80002334:	e3483000 	movt	r3, #32768	; 0x8000
80002338:	e3480000 	movt	r0, #32768	; 0x8000
8000233c:	e3a02000 	mov	r2, #0
80002340:	e583200c 	str	r2, [r3, #12]
80002344:	e2831008 	add	r1, r3, #8
80002348:	eb00076a 	bl	800040f8 <_Z7kprintfPKcz>
8000234c:	e59f5188 	ldr	r5, [pc, #392]	; 800024dc <_Z10ProcessEndv+0x290>
80002350:	e3a06000 	mov	r6, #0
80002354:	e1a00005 	mov	r0, r5
80002358:	e2459008 	sub	r9, r5, #8
8000235c:	ebffffa8 	bl	80002204 <_ZL12SpinlockLockP10Spinlock_t>
80002360:	e5153008 	ldr	r3, [r5, #-8]
80002364:	e1a00005 	mov	r0, r5
80002368:	e5849055 	str	r9, [r4, #85]	; 0x55
8000236c:	e5843051 	str	r3, [r4, #81]	; 0x51
80002370:	e5837004 	str	r7, [r3, #4]
80002374:	e5057008 	str	r7, [r5, #-8]
80002378:	eb000675 	bl	80003d54 <SpinlockClear>
8000237c:	e5856004 	str	r6, [r5, #4]
80002380:	e305015c 	movw	r0, #20828	; 0x515c
80002384:	e3480000 	movt	r0, #32768	; 0x8000
80002388:	e1a01005 	mov	r1, r5
8000238c:	eb000759 	bl	800040f8 <_Z7kprintfPKcz>
80002390:	e5c4603d 	strb	r6, [r4, #61]	; 0x3d
80002394:	e3a03002 	mov	r3, #2
80002398:	e5c4303c 	strb	r3, [r4, #60]	; 0x3c
8000239c:	e1a00008 	mov	r0, r8
800023a0:	e5c4603e 	strb	r6, [r4, #62]	; 0x3e
800023a4:	e5c4603f 	strb	r6, [r4, #63]	; 0x3f
800023a8:	eb000669 	bl	80003d54 <SpinlockClear>
800023ac:	e584604d 	str	r6, [r4, #77]	; 0x4d
800023b0:	e305015c 	movw	r0, #20828	; 0x515c
800023b4:	e3480000 	movt	r0, #32768	; 0x8000
800023b8:	e1a01008 	mov	r1, r8
800023bc:	eb00074d 	bl	800040f8 <_Z7kprintfPKcz>
800023c0:	eb00030d 	bl	80002ffc <_Z17ProcessReschedulev>
800023c4:	e305083c 	movw	r0, #22588	; 0x583c
800023c8:	e3480000 	movt	r0, #32768	; 0x8000
800023cc:	eb000749 	bl	800040f8 <_Z7kprintfPKcz>
800023d0:	eb0007d3 	bl	80004324 <Halt>
800023d4:	e59f0104 	ldr	r0, [pc, #260]	; 800024e0 <_Z10ProcessEndv+0x294>
800023d8:	ebffff89 	bl	80002204 <_ZL12SpinlockLockP10Spinlock_t>
800023dc:	e5943051 	ldr	r3, [r4, #81]	; 0x51
800023e0:	e5942055 	ldr	r2, [r4, #85]	; 0x55
800023e4:	e59f00f4 	ldr	r0, [pc, #244]	; 800024e0 <_Z10ProcessEndv+0x294>
800023e8:	e5823000 	str	r3, [r2]
800023ec:	e5832004 	str	r2, [r3, #4]
800023f0:	e5847051 	str	r7, [r4, #81]	; 0x51
800023f4:	e5847055 	str	r7, [r4, #85]	; 0x55
800023f8:	eb000655 	bl	80003d54 <SpinlockClear>
800023fc:	e30831c0 	movw	r3, #33216	; 0x81c0
80002400:	e305015c 	movw	r0, #20828	; 0x515c
80002404:	e3483000 	movt	r3, #32768	; 0x8000
80002408:	eaffffca 	b	80002338 <_Z10ProcessEndv+0xec>
8000240c:	e59f00d0 	ldr	r0, [pc, #208]	; 800024e4 <_Z10ProcessEndv+0x298>
80002410:	ebffff7b 	bl	80002204 <_ZL12SpinlockLockP10Spinlock_t>
80002414:	e5943051 	ldr	r3, [r4, #81]	; 0x51
80002418:	e5942055 	ldr	r2, [r4, #85]	; 0x55
8000241c:	e59f00c0 	ldr	r0, [pc, #192]	; 800024e4 <_Z10ProcessEndv+0x298>
80002420:	e5823000 	str	r3, [r2]
80002424:	e5832004 	str	r2, [r3, #4]
80002428:	e5847051 	str	r7, [r4, #81]	; 0x51
8000242c:	e5847055 	str	r7, [r4, #85]	; 0x55
80002430:	eb000647 	bl	80003d54 <SpinlockClear>
80002434:	e30831d0 	movw	r3, #33232	; 0x81d0
80002438:	e305015c 	movw	r0, #20828	; 0x515c
8000243c:	e3483000 	movt	r3, #32768	; 0x8000
80002440:	eaffffbc 	b	80002338 <_Z10ProcessEndv+0xec>
80002444:	e59f009c 	ldr	r0, [pc, #156]	; 800024e8 <_Z10ProcessEndv+0x29c>
80002448:	ebffff6d 	bl	80002204 <_ZL12SpinlockLockP10Spinlock_t>
8000244c:	e5943051 	ldr	r3, [r4, #81]	; 0x51
80002450:	e5942055 	ldr	r2, [r4, #85]	; 0x55
80002454:	e59f008c 	ldr	r0, [pc, #140]	; 800024e8 <_Z10ProcessEndv+0x29c>
80002458:	e5823000 	str	r3, [r2]
8000245c:	e5832004 	str	r2, [r3, #4]
80002460:	e5847051 	str	r7, [r4, #81]	; 0x51
80002464:	e5847055 	str	r7, [r4, #85]	; 0x55
80002468:	eb000639 	bl	80003d54 <SpinlockClear>
8000246c:	e30831e0 	movw	r3, #33248	; 0x81e0
80002470:	e305015c 	movw	r0, #20828	; 0x515c
80002474:	e3483000 	movt	r3, #32768	; 0x8000
80002478:	eaffffae 	b	80002338 <_Z10ProcessEndv+0xec>
8000247c:	e59f0068 	ldr	r0, [pc, #104]	; 800024ec <_Z10ProcessEndv+0x2a0>
80002480:	ebffff5f 	bl	80002204 <_ZL12SpinlockLockP10Spinlock_t>
80002484:	e5943051 	ldr	r3, [r4, #81]	; 0x51
80002488:	e5942055 	ldr	r2, [r4, #85]	; 0x55
8000248c:	e59f0058 	ldr	r0, [pc, #88]	; 800024ec <_Z10ProcessEndv+0x2a0>
80002490:	e5823000 	str	r3, [r2]
80002494:	e5832004 	str	r2, [r3, #4]
80002498:	e5847051 	str	r7, [r4, #81]	; 0x51
8000249c:	e5847055 	str	r7, [r4, #85]	; 0x55
800024a0:	eb00062b 	bl	80003d54 <SpinlockClear>
800024a4:	e30831f0 	movw	r3, #33264	; 0x81f0
800024a8:	e305015c 	movw	r0, #20828	; 0x515c
800024ac:	e3483000 	movt	r3, #32768	; 0x8000
800024b0:	eaffffa0 	b	80002338 <_Z10ProcessEndv+0xec>
800024b4:	e1a00008 	mov	r0, r8
800024b8:	eb000625 	bl	80003d54 <SpinlockClear>
800024bc:	e3a03000 	mov	r3, #0
800024c0:	e305015c 	movw	r0, #20828	; 0x515c
800024c4:	e584304d 	str	r3, [r4, #77]	; 0x4d
800024c8:	e1a01008 	mov	r1, r8
800024cc:	e3480000 	movt	r0, #32768	; 0x8000
800024d0:	eb000708 	bl	800040f8 <_Z7kprintfPKcz>
800024d4:	eaffff9c 	b	8000234c <_Z10ProcessEndv+0x100>
800024d8:	80008208 	andhi	r8, r0, r8, lsl #4
800024dc:	80008098 	mulhi	r0, r8, r0
800024e0:	800081c8 	andhi	r8, r0, r8, asr #3
800024e4:	800081d8 	ldrdhi	r8, [r0], -r8	; <UNPREDICTABLE>
800024e8:	800081e8 	andhi	r8, r0, r8, ror #3
800024ec:	800081f8 	strdhi	r8, [r0], -r8	; <UNPREDICTABLE>

800024f0 <_Z11ProcessHoldj>:
800024f0:	e3500902 	cmp	r0, #32768	; 0x8000
800024f4:	e92d4ff8 	push	{r3, r4, r5, r6, r7, r8, r9, sl, fp, lr}
800024f8:	8a0000ec 	bhi	800028b0 <_Z11ProcessHoldj+0x3c0>
800024fc:	e30f3c0c 	movw	r3, #64524	; 0xfc0c
80002500:	e3483001 	movt	r3, #32769	; 0x8001
80002504:	e7934100 	ldr	r4, [r3, r0, lsl #2]
80002508:	e3540000 	cmp	r4, #0
8000250c:	0a0000e7 	beq	800028b0 <_Z11ProcessHoldj+0x3c0>
80002510:	e30f6c0c 	movw	r6, #64524	; 0xfc0c
80002514:	e1a09000 	mov	r9, r0
80002518:	e3486003 	movt	r6, #32771	; 0x8003
8000251c:	e2845049 	add	r5, r4, #73	; 0x49
80002520:	e3050134 	movw	r0, #20788	; 0x5134
80002524:	e1a02005 	mov	r2, r5
80002528:	e3480000 	movt	r0, #32768	; 0x8000
8000252c:	e5961000 	ldr	r1, [r6]
80002530:	eb0006f0 	bl	800040f8 <_Z7kprintfPKcz>
80002534:	e3a02001 	mov	r2, #1
80002538:	e3a01000 	mov	r1, #0
8000253c:	e1a00005 	mov	r0, r5
80002540:	eb0005fb 	bl	80003d34 <SpinlockAtomicLock>
80002544:	e2507000 	subs	r7, r0, #0
80002548:	1afffff9 	bne	80002534 <_Z11ProcessHoldj+0x44>
8000254c:	e5d43048 	ldrb	r3, [r4, #72]	; 0x48
80002550:	e5962000 	ldr	r2, [r6]
80002554:	e3530000 	cmp	r3, #0
80002558:	e584204d 	str	r2, [r4, #77]	; 0x4d
8000255c:	1a0000d5 	bne	800028b8 <_Z11ProcessHoldj+0x3c8>
80002560:	e594303c 	ldr	r3, [r4, #60]	; 0x3c
80002564:	e2433001 	sub	r3, r3, #1
80002568:	e3530006 	cmp	r3, #6
8000256c:	979ff103 	ldrls	pc, [pc, r3, lsl #2]
80002570:	ea000006 	b	80002590 <_Z11ProcessHoldj+0xa0>
80002574:	800026e4 	andhi	r2, r0, r4, ror #13
80002578:	80002590 	mulhi	r0, r0, r5
8000257c:	800025bc 			; <UNDEFINED> instruction: 0x800025bc
80002580:	800025bc 			; <UNDEFINED> instruction: 0x800025bc
80002584:	800025bc 			; <UNDEFINED> instruction: 0x800025bc
80002588:	800025bc 			; <UNDEFINED> instruction: 0x800025bc
8000258c:	80002590 	mulhi	r0, r0, r5
80002590:	e1a00005 	mov	r0, r5
80002594:	e3e080fe 	mvn	r8, #254	; 0xfe
80002598:	eb0005ed 	bl	80003d54 <SpinlockClear>
8000259c:	e3a03000 	mov	r3, #0
800025a0:	e305015c 	movw	r0, #20828	; 0x515c
800025a4:	e584304d 	str	r3, [r4, #77]	; 0x4d
800025a8:	e1a01005 	mov	r1, r5
800025ac:	e3480000 	movt	r0, #32768	; 0x8000
800025b0:	eb0006d0 	bl	800040f8 <_Z7kprintfPKcz>
800025b4:	e1a00008 	mov	r0, r8
800025b8:	e8bd8ff8 	pop	{r3, r4, r5, r6, r7, r8, r9, sl, fp, pc}
800025bc:	e59f2318 	ldr	r2, [pc, #792]	; 800028dc <_Z11ProcessHoldj+0x3ec>
800025c0:	e3050134 	movw	r0, #20788	; 0x5134
800025c4:	e5961000 	ldr	r1, [r6]
800025c8:	e3480000 	movt	r0, #32768	; 0x8000
800025cc:	e1a08002 	mov	r8, r2
800025d0:	eb0006c8 	bl	800040f8 <_Z7kprintfPKcz>
800025d4:	e3a02001 	mov	r2, #1
800025d8:	e3a01000 	mov	r1, #0
800025dc:	e1a00008 	mov	r0, r8
800025e0:	eb0005d3 	bl	80003d34 <SpinlockAtomicLock>
800025e4:	e2507000 	subs	r7, r0, #0
800025e8:	1afffff9 	bne	800025d4 <_Z11ProcessHoldj+0xe4>
800025ec:	e5962000 	ldr	r2, [r6]
800025f0:	e30880b0 	movw	r8, #32944	; 0x80b0
800025f4:	e3488000 	movt	r8, #32768	; 0x8000
800025f8:	e5943051 	ldr	r3, [r4, #81]	; 0x51
800025fc:	e284a051 	add	sl, r4, #81	; 0x51
80002600:	e588200c 	str	r2, [r8, #12]
80002604:	e2880008 	add	r0, r8, #8
80002608:	e5942055 	ldr	r2, [r4, #85]	; 0x55
8000260c:	e59fb2cc 	ldr	fp, [pc, #716]	; 800028e0 <_Z11ProcessHoldj+0x3f0>
80002610:	e5823000 	str	r3, [r2]
80002614:	e5832004 	str	r2, [r3, #4]
80002618:	e584a051 	str	sl, [r4, #81]	; 0x51
8000261c:	e584a055 	str	sl, [r4, #85]	; 0x55
80002620:	eb0005cb 	bl	80003d54 <SpinlockClear>
80002624:	e588700c 	str	r7, [r8, #12]
80002628:	e305015c 	movw	r0, #20828	; 0x515c
8000262c:	e3480000 	movt	r0, #32768	; 0x8000
80002630:	e2881008 	add	r1, r8, #8
80002634:	e1a0700b 	mov	r7, fp
80002638:	eb0006ae 	bl	800040f8 <_Z7kprintfPKcz>
8000263c:	e5961000 	ldr	r1, [r6]
80002640:	e3a03001 	mov	r3, #1
80002644:	e5c43048 	strb	r3, [r4, #72]	; 0x48
80002648:	e3050134 	movw	r0, #20788	; 0x5134
8000264c:	e3480000 	movt	r0, #32768	; 0x8000
80002650:	e1a0200b 	mov	r2, fp
80002654:	eb0006a7 	bl	800040f8 <_Z7kprintfPKcz>
80002658:	e3a02001 	mov	r2, #1
8000265c:	e3a01000 	mov	r1, #0
80002660:	e1a00007 	mov	r0, r7
80002664:	eb0005b2 	bl	80003d34 <SpinlockAtomicLock>
80002668:	e2508000 	subs	r8, r0, #0
8000266c:	1afffff9 	bne	80002658 <_Z11ProcessHoldj+0x168>
80002670:	e51b3008 	ldr	r3, [fp, #-8]
80002674:	e30870a0 	movw	r7, #32928	; 0x80a0
80002678:	e5962000 	ldr	r2, [r6]
8000267c:	e3487000 	movt	r7, #32768	; 0x8000
80002680:	e5843051 	str	r3, [r4, #81]	; 0x51
80002684:	e2870008 	add	r0, r7, #8
80002688:	e587200c 	str	r2, [r7, #12]
8000268c:	e5847055 	str	r7, [r4, #85]	; 0x55
80002690:	e50ba008 	str	sl, [fp, #-8]
80002694:	e583a004 	str	sl, [r3, #4]
80002698:	eb0005ad 	bl	80003d54 <SpinlockClear>
8000269c:	e587800c 	str	r8, [r7, #12]
800026a0:	e305015c 	movw	r0, #20828	; 0x515c
800026a4:	e3480000 	movt	r0, #32768	; 0x8000
800026a8:	e2871008 	add	r1, r7, #8
800026ac:	eb000691 	bl	800040f8 <_Z7kprintfPKcz>
800026b0:	e1a00005 	mov	r0, r5
800026b4:	eb0005a6 	bl	80003d54 <SpinlockClear>
800026b8:	e584804d 	str	r8, [r4, #77]	; 0x4d
800026bc:	e305015c 	movw	r0, #20828	; 0x515c
800026c0:	e3480000 	movt	r0, #32768	; 0x8000
800026c4:	e1a01005 	mov	r1, r5
800026c8:	eb00068a 	bl	800040f8 <_Z7kprintfPKcz>
800026cc:	e5963000 	ldr	r3, [r6]
800026d0:	e1530009 	cmp	r3, r9
800026d4:	1affffb6 	bne	800025b4 <_Z11ProcessHoldj+0xc4>
800026d8:	eb000247 	bl	80002ffc <_Z17ProcessReschedulev>
800026dc:	e1a00008 	mov	r0, r8
800026e0:	e8bd8ff8 	pop	{r3, r4, r5, r6, r7, r8, r9, sl, fp, pc}
800026e4:	e5943040 	ldr	r3, [r4, #64]	; 0x40
800026e8:	e2433001 	sub	r3, r3, #1
800026ec:	e353001d 	cmp	r3, #29
800026f0:	979ff103 	ldrls	pc, [pc, r3, lsl #2]
800026f4:	eaffffa5 	b	80002590 <_Z11ProcessHoldj+0xa0>
800026f8:	800027b0 			; <UNDEFINED> instruction: 0x800027b0
800026fc:	80002590 	mulhi	r0, r0, r5
80002700:	80002590 	mulhi	r0, r0, r5
80002704:	80002590 	mulhi	r0, r0, r5
80002708:	80002830 	andhi	r2, r0, r0, lsr r8
8000270c:	80002590 	mulhi	r0, r0, r5
80002710:	80002590 	mulhi	r0, r0, r5
80002714:	80002590 	mulhi	r0, r0, r5
80002718:	80002590 	mulhi	r0, r0, r5
8000271c:	800027f0 	strdhi	r2, [r0], -r0
80002720:	80002590 	mulhi	r0, r0, r5
80002724:	80002590 	mulhi	r0, r0, r5
80002728:	80002590 	mulhi	r0, r0, r5
8000272c:	80002590 	mulhi	r0, r0, r5
80002730:	80002590 	mulhi	r0, r0, r5
80002734:	80002590 	mulhi	r0, r0, r5
80002738:	80002590 	mulhi	r0, r0, r5
8000273c:	80002590 	mulhi	r0, r0, r5
80002740:	80002590 	mulhi	r0, r0, r5
80002744:	80002870 	andhi	r2, r0, r0, ror r8
80002748:	80002590 	mulhi	r0, r0, r5
8000274c:	80002590 	mulhi	r0, r0, r5
80002750:	80002590 	mulhi	r0, r0, r5
80002754:	80002590 	mulhi	r0, r0, r5
80002758:	80002590 	mulhi	r0, r0, r5
8000275c:	80002590 	mulhi	r0, r0, r5
80002760:	80002590 	mulhi	r0, r0, r5
80002764:	80002590 	mulhi	r0, r0, r5
80002768:	80002590 	mulhi	r0, r0, r5
8000276c:	80002770 	andhi	r2, r0, r0, ror r7
80002770:	e59f216c 	ldr	r2, [pc, #364]	; 800028e4 <_Z11ProcessHoldj+0x3f4>
80002774:	e3050134 	movw	r0, #20788	; 0x5134
80002778:	e5961000 	ldr	r1, [r6]
8000277c:	e3480000 	movt	r0, #32768	; 0x8000
80002780:	e1a08002 	mov	r8, r2
80002784:	eb00065b 	bl	800040f8 <_Z7kprintfPKcz>
80002788:	e3a02001 	mov	r2, #1
8000278c:	e3a01000 	mov	r1, #0
80002790:	e1a00008 	mov	r0, r8
80002794:	eb000566 	bl	80003d34 <SpinlockAtomicLock>
80002798:	e2507000 	subs	r7, r0, #0
8000279c:	1afffff9 	bne	80002788 <_Z11ProcessHoldj+0x298>
800027a0:	e5962000 	ldr	r2, [r6]
800027a4:	e3088200 	movw	r8, #33280	; 0x8200
800027a8:	e3488000 	movt	r8, #32768	; 0x8000
800027ac:	eaffff91 	b	800025f8 <_Z11ProcessHoldj+0x108>
800027b0:	e59f2130 	ldr	r2, [pc, #304]	; 800028e8 <_Z11ProcessHoldj+0x3f8>
800027b4:	e3050134 	movw	r0, #20788	; 0x5134
800027b8:	e5961000 	ldr	r1, [r6]
800027bc:	e3480000 	movt	r0, #32768	; 0x8000
800027c0:	e1a08002 	mov	r8, r2
800027c4:	eb00064b 	bl	800040f8 <_Z7kprintfPKcz>
800027c8:	e3a02001 	mov	r2, #1
800027cc:	e3a01000 	mov	r1, #0
800027d0:	e1a00008 	mov	r0, r8
800027d4:	eb000556 	bl	80003d34 <SpinlockAtomicLock>
800027d8:	e2507000 	subs	r7, r0, #0
800027dc:	1afffff9 	bne	800027c8 <_Z11ProcessHoldj+0x2d8>
800027e0:	e5962000 	ldr	r2, [r6]
800027e4:	e30881c0 	movw	r8, #33216	; 0x81c0
800027e8:	e3488000 	movt	r8, #32768	; 0x8000
800027ec:	eaffff81 	b	800025f8 <_Z11ProcessHoldj+0x108>
800027f0:	e59f20f4 	ldr	r2, [pc, #244]	; 800028ec <_Z11ProcessHoldj+0x3fc>
800027f4:	e3050134 	movw	r0, #20788	; 0x5134
800027f8:	e5961000 	ldr	r1, [r6]
800027fc:	e3480000 	movt	r0, #32768	; 0x8000
80002800:	e1a08002 	mov	r8, r2
80002804:	eb00063b 	bl	800040f8 <_Z7kprintfPKcz>
80002808:	e3a02001 	mov	r2, #1
8000280c:	e3a01000 	mov	r1, #0
80002810:	e1a00008 	mov	r0, r8
80002814:	eb000546 	bl	80003d34 <SpinlockAtomicLock>
80002818:	e2507000 	subs	r7, r0, #0
8000281c:	1afffff9 	bne	80002808 <_Z11ProcessHoldj+0x318>
80002820:	e5962000 	ldr	r2, [r6]
80002824:	e30881e0 	movw	r8, #33248	; 0x81e0
80002828:	e3488000 	movt	r8, #32768	; 0x8000
8000282c:	eaffff71 	b	800025f8 <_Z11ProcessHoldj+0x108>
80002830:	e59f20b8 	ldr	r2, [pc, #184]	; 800028f0 <_Z11ProcessHoldj+0x400>
80002834:	e3050134 	movw	r0, #20788	; 0x5134
80002838:	e5961000 	ldr	r1, [r6]
8000283c:	e3480000 	movt	r0, #32768	; 0x8000
80002840:	e1a08002 	mov	r8, r2
80002844:	eb00062b 	bl	800040f8 <_Z7kprintfPKcz>
80002848:	e3a02001 	mov	r2, #1
8000284c:	e3a01000 	mov	r1, #0
80002850:	e1a00008 	mov	r0, r8
80002854:	eb000536 	bl	80003d34 <SpinlockAtomicLock>
80002858:	e2507000 	subs	r7, r0, #0
8000285c:	1afffff9 	bne	80002848 <_Z11ProcessHoldj+0x358>
80002860:	e5962000 	ldr	r2, [r6]
80002864:	e30881d0 	movw	r8, #33232	; 0x81d0
80002868:	e3488000 	movt	r8, #32768	; 0x8000
8000286c:	eaffff61 	b	800025f8 <_Z11ProcessHoldj+0x108>
80002870:	e59f207c 	ldr	r2, [pc, #124]	; 800028f4 <_Z11ProcessHoldj+0x404>
80002874:	e3050134 	movw	r0, #20788	; 0x5134
80002878:	e5961000 	ldr	r1, [r6]
8000287c:	e3480000 	movt	r0, #32768	; 0x8000
80002880:	e1a08002 	mov	r8, r2
80002884:	eb00061b 	bl	800040f8 <_Z7kprintfPKcz>
80002888:	e3a02001 	mov	r2, #1
8000288c:	e3a01000 	mov	r1, #0
80002890:	e1a00008 	mov	r0, r8
80002894:	eb000526 	bl	80003d34 <SpinlockAtomicLock>
80002898:	e2507000 	subs	r7, r0, #0
8000289c:	1afffff9 	bne	80002888 <_Z11ProcessHoldj+0x398>
800028a0:	e5962000 	ldr	r2, [r6]
800028a4:	e30881f0 	movw	r8, #33264	; 0x81f0
800028a8:	e3488000 	movt	r8, #32768	; 0x8000
800028ac:	eaffff51 	b	800025f8 <_Z11ProcessHoldj+0x108>
800028b0:	e3e080fe 	mvn	r8, #254	; 0xfe
800028b4:	eaffff3e 	b	800025b4 <_Z11ProcessHoldj+0xc4>
800028b8:	e1a00005 	mov	r0, r5
800028bc:	e3e080fe 	mvn	r8, #254	; 0xfe
800028c0:	eb000523 	bl	80003d54 <SpinlockClear>
800028c4:	e584704d 	str	r7, [r4, #77]	; 0x4d
800028c8:	e305015c 	movw	r0, #20828	; 0x515c
800028cc:	e3480000 	movt	r0, #32768	; 0x8000
800028d0:	e1a01005 	mov	r1, r5
800028d4:	eb000607 	bl	800040f8 <_Z7kprintfPKcz>
800028d8:	eaffff35 	b	800025b4 <_Z11ProcessHoldj+0xc4>
800028dc:	800080b8 	strhhi	r8, [r0], -r8	; <UNPREDICTABLE>
800028e0:	800080a8 	andhi	r8, r0, r8, lsr #1
800028e4:	80008208 	andhi	r8, r0, r8, lsl #4
800028e8:	800081c8 	andhi	r8, r0, r8, asr #3
800028ec:	800081e8 	andhi	r8, r0, r8, ror #3
800028f0:	800081d8 	ldrdhi	r8, [r0], -r8	; <UNPREDICTABLE>
800028f4:	800081f8 	strdhi	r8, [r0], -r8	; <UNPREDICTABLE>

800028f8 <_Z11ProcessInitv>:
800028f8:	e92d4070 	push	{r4, r5, r6, lr}
800028fc:	e3084140 	movw	r4, #33088	; 0x8140
80002900:	e3484000 	movt	r4, #32768	; 0x8000
80002904:	e30f2404 	movw	r2, #62468	; 0xf404
80002908:	e59f3130 	ldr	r3, [pc, #304]	; 80002a40 <_Z11ProcessInitv+0x148>
8000290c:	e284c069 	add	ip, r4, #105	; 0x69
80002910:	e3482001 	movt	r2, #32769	; 0x8001
80002914:	e3041040 	movw	r1, #16448	; 0x4040
80002918:	e3481000 	movt	r1, #32768	; 0x8000
8000291c:	e2840059 	add	r0, r4, #89	; 0x59
80002920:	e5843000 	str	r3, [r4]
80002924:	e3a03000 	mov	r3, #0
80002928:	e584c069 	str	ip, [r4, #105]	; 0x69
8000292c:	e3a05001 	mov	r5, #1
80002930:	e584c06d 	str	ip, [r4, #109]	; 0x6d
80002934:	e3a0c4ff 	mov	ip, #-16777216	; 0xff000000
80002938:	e58237f4 	str	r3, [r2, #2036]	; 0x7f4
8000293c:	e58237f0 	str	r3, [r2, #2032]	; 0x7f0
80002940:	e58237ec 	str	r3, [r2, #2028]	; 0x7ec
80002944:	e58237e8 	str	r3, [r2, #2024]	; 0x7e8
80002948:	e58237e4 	str	r3, [r2, #2020]	; 0x7e4
8000294c:	e58237e0 	str	r3, [r2, #2016]	; 0x7e0
80002950:	e58237dc 	str	r3, [r2, #2012]	; 0x7dc
80002954:	e58237d8 	str	r3, [r2, #2008]	; 0x7d8
80002958:	e58237d4 	str	r3, [r2, #2004]	; 0x7d4
8000295c:	e58237d0 	str	r3, [r2, #2000]	; 0x7d0
80002960:	e58237cc 	str	r3, [r2, #1996]	; 0x7cc
80002964:	e58237c8 	str	r3, [r2, #1992]	; 0x7c8
80002968:	e58237c4 	str	r3, [r2, #1988]	; 0x7c4
8000296c:	e58237c0 	str	r3, [r2, #1984]	; 0x7c0
80002970:	e58237bc 	str	r3, [r2, #1980]	; 0x7bc
80002974:	e582c7fc 	str	ip, [r2, #2044]	; 0x7fc
80002978:	e58217f8 	str	r1, [r2, #2040]	; 0x7f8
8000297c:	e5c43004 	strb	r3, [r4, #4]
80002980:	e5c43005 	strb	r3, [r4, #5]
80002984:	e5c43006 	strb	r3, [r4, #6]
80002988:	e5c43007 	strb	r3, [r4, #7]
8000298c:	e5c4303d 	strb	r3, [r4, #61]	; 0x3d
80002990:	e5c4303e 	strb	r3, [r4, #62]	; 0x3e
80002994:	e5c4303f 	strb	r3, [r4, #63]	; 0x3f
80002998:	e5c4503c 	strb	r5, [r4, #60]	; 0x3c
8000299c:	e5840059 	str	r0, [r4, #89]	; 0x59
800029a0:	e584005d 	str	r0, [r4, #93]	; 0x5d
800029a4:	ebfff6e3 	bl	80000538 <GetTTBR0>
800029a8:	e5840008 	str	r0, [r4, #8]
800029ac:	e30811c0 	movw	r1, #33216	; 0x81c0
800029b0:	e3481000 	movt	r1, #32768	; 0x8000
800029b4:	e30fcc0c 	movw	ip, #64524	; 0xfc0c
800029b8:	e348c003 	movt	ip, #32771	; 0x8003
800029bc:	e3082200 	movw	r2, #33280	; 0x8200
800029c0:	e3482000 	movt	r2, #32768	; 0x8000
800029c4:	e30f0c0c 	movw	r0, #64524	; 0xfc0c
800029c8:	f2c00010 	vmov.i32	d16, #0	; 0x00000000
800029cc:	e3480001 	movt	r0, #32769	; 0x8001
800029d0:	e30830c0 	movw	r3, #32960	; 0x80c0
800029d4:	e58c5000 	str	r5, [ip]
800029d8:	e284e051 	add	lr, r4, #81	; 0x51
800029dc:	e591c000 	ldr	ip, [r1]
800029e0:	e3483000 	movt	r3, #32768	; 0x8000
800029e4:	e5841055 	str	r1, [r4, #85]	; 0x55
800029e8:	e2836061 	add	r6, r3, #97	; 0x61
800029ec:	e584c051 	str	ip, [r4, #81]	; 0x51
800029f0:	e2835071 	add	r5, r3, #113	; 0x71
800029f4:	e581e000 	str	lr, [r1]
800029f8:	e5804000 	str	r4, [r0]
800029fc:	e5921000 	ldr	r1, [r2]
80002a00:	e58ce004 	str	lr, [ip, #4]
80002a04:	e283c051 	add	ip, r3, #81	; 0x51
80002a08:	e5832055 	str	r2, [r3, #85]	; 0x55
80002a0c:	e283e059 	add	lr, r3, #89	; 0x59
80002a10:	e582c000 	str	ip, [r2]
80002a14:	e2832069 	add	r2, r3, #105	; 0x69
80002a18:	e5831051 	str	r1, [r3, #81]	; 0x51
80002a1c:	f446070f 	vst1.8	{d16}, [r6]
80002a20:	f445070f 	vst1.8	{d16}, [r5]
80002a24:	e583e059 	str	lr, [r3, #89]	; 0x59
80002a28:	e583e05d 	str	lr, [r3, #93]	; 0x5d
80002a2c:	e5832069 	str	r2, [r3, #105]	; 0x69
80002a30:	e583206d 	str	r2, [r3, #109]	; 0x6d
80002a34:	e581c004 	str	ip, [r1, #4]
80002a38:	e5803004 	str	r3, [r0, #4]
80002a3c:	e8bd8070 	pop	{r4, r5, r6, pc}
80002a40:	8001fbc0 	andhi	pc, r1, r0, asr #23

80002a44 <_Z13ProcessNewPIDv>:
80002a44:	e308c08c 	movw	ip, #32908	; 0x808c
80002a48:	e30f2c0c 	movw	r2, #64524	; 0xfc0c
80002a4c:	e348c000 	movt	ip, #32768	; 0x8000
80002a50:	e3482001 	movt	r2, #32769	; 0x8001
80002a54:	e59c1000 	ldr	r1, [ip]
80002a58:	e1a00001 	mov	r0, r1
80002a5c:	ea000001 	b	80002a68 <_Z13ProcessNewPIDv+0x24>
80002a60:	e1500001 	cmp	r0, r1
80002a64:	0a000007 	beq	80002a88 <_Z13ProcessNewPIDv+0x44>
80002a68:	e2800001 	add	r0, r0, #1
80002a6c:	e3500902 	cmp	r0, #32768	; 0x8000
80002a70:	03a00000 	moveq	r0, #0
80002a74:	e7923100 	ldr	r3, [r2, r0, lsl #2]
80002a78:	e3530000 	cmp	r3, #0
80002a7c:	1afffff7 	bne	80002a60 <_Z13ProcessNewPIDv+0x1c>
80002a80:	e58c0000 	str	r0, [ip]
80002a84:	e12fff1e 	bx	lr
80002a88:	e92d4010 	push	{r4, lr}
80002a8c:	eb000624 	bl	80004324 <Halt>

80002a90 <_Z12ProcessReadyj>:
80002a90:	e3500902 	cmp	r0, #32768	; 0x8000
80002a94:	e92d4ff0 	push	{r4, r5, r6, r7, r8, r9, sl, fp, lr}
80002a98:	e24dd00c 	sub	sp, sp, #12
80002a9c:	8a0000d1 	bhi	80002de8 <_Z12ProcessReadyj+0x358>
80002aa0:	e30f9c0c 	movw	r9, #64524	; 0xfc0c
80002aa4:	e3489001 	movt	r9, #32769	; 0x8001
80002aa8:	e7996100 	ldr	r6, [r9, r0, lsl #2]
80002aac:	e3560000 	cmp	r6, #0
80002ab0:	0a0000cc 	beq	80002de8 <_Z12ProcessReadyj+0x358>
80002ab4:	e30f7c0c 	movw	r7, #64524	; 0xfc0c
80002ab8:	e1a08000 	mov	r8, r0
80002abc:	e3487003 	movt	r7, #32771	; 0x8003
80002ac0:	e2864049 	add	r4, r6, #73	; 0x49
80002ac4:	e3050134 	movw	r0, #20788	; 0x5134
80002ac8:	e1a02004 	mov	r2, r4
80002acc:	e3480000 	movt	r0, #32768	; 0x8000
80002ad0:	e5971000 	ldr	r1, [r7]
80002ad4:	eb000587 	bl	800040f8 <_Z7kprintfPKcz>
80002ad8:	e3a02001 	mov	r2, #1
80002adc:	e3a01000 	mov	r1, #0
80002ae0:	e1a00004 	mov	r0, r4
80002ae4:	eb000492 	bl	80003d34 <SpinlockAtomicLock>
80002ae8:	e2505000 	subs	r5, r0, #0
80002aec:	1afffff9 	bne	80002ad8 <_Z12ProcessReadyj+0x48>
80002af0:	e5d63048 	ldrb	r3, [r6, #72]	; 0x48
80002af4:	e5972000 	ldr	r2, [r7]
80002af8:	e3530000 	cmp	r3, #0
80002afc:	e586204d 	str	r2, [r6, #77]	; 0x4d
80002b00:	1a0000ba 	bne	80002df0 <_Z12ProcessReadyj+0x360>
80002b04:	e596303c 	ldr	r3, [r6, #60]	; 0x3c
80002b08:	e3530007 	cmp	r3, #7
80002b0c:	979ff103 	ldrls	pc, [pc, r3, lsl #2]
80002b10:	ea000007 	b	80002b34 <_Z12ProcessReadyj+0xa4>
80002b14:	80002b64 	andhi	r2, r0, r4, ror #22
80002b18:	80002b64 	andhi	r2, r0, r4, ror #22
80002b1c:	80002b34 	andhi	r2, r0, r4, lsr fp
80002b20:	80002b64 	andhi	r2, r0, r4, ror #22
80002b24:	80002b64 	andhi	r2, r0, r4, ror #22
80002b28:	80002b64 	andhi	r2, r0, r4, ror #22
80002b2c:	80002b64 	andhi	r2, r0, r4, ror #22
80002b30:	80002b34 	andhi	r2, r0, r4, lsr fp
80002b34:	e1a00004 	mov	r0, r4
80002b38:	e3e050fe 	mvn	r5, #254	; 0xfe
80002b3c:	eb000484 	bl	80003d54 <SpinlockClear>
80002b40:	e3a03000 	mov	r3, #0
80002b44:	e305015c 	movw	r0, #20828	; 0x515c
80002b48:	e586304d 	str	r3, [r6, #77]	; 0x4d
80002b4c:	e1a01004 	mov	r1, r4
80002b50:	e3480000 	movt	r0, #32768	; 0x8000
80002b54:	eb000567 	bl	800040f8 <_Z7kprintfPKcz>
80002b58:	e1a00005 	mov	r0, r5
80002b5c:	e28dd00c 	add	sp, sp, #12
80002b60:	e8bd8ff0 	pop	{r4, r5, r6, r7, r8, r9, sl, fp, pc}
80002b64:	e5963040 	ldr	r3, [r6, #64]	; 0x40
80002b68:	e2433001 	sub	r3, r3, #1
80002b6c:	e353001d 	cmp	r3, #29
80002b70:	979ff103 	ldrls	pc, [pc, r3, lsl #2]
80002b74:	eaffffee 	b	80002b34 <_Z12ProcessReadyj+0xa4>
80002b78:	80002d10 	andhi	r2, r0, r0, lsl sp
80002b7c:	80002b34 	andhi	r2, r0, r4, lsr fp
80002b80:	80002b34 	andhi	r2, r0, r4, lsr fp
80002b84:	80002b34 	andhi	r2, r0, r4, lsr fp
80002b88:	80002cc8 	andhi	r2, r0, r8, asr #25
80002b8c:	80002b34 	andhi	r2, r0, r4, lsr fp
80002b90:	80002b34 	andhi	r2, r0, r4, lsr fp
80002b94:	80002b34 	andhi	r2, r0, r4, lsr fp
80002b98:	80002b34 	andhi	r2, r0, r4, lsr fp
80002b9c:	80002c80 	andhi	r2, r0, r0, lsl #25
80002ba0:	80002b34 	andhi	r2, r0, r4, lsr fp
80002ba4:	80002b34 	andhi	r2, r0, r4, lsr fp
80002ba8:	80002b34 	andhi	r2, r0, r4, lsr fp
80002bac:	80002b34 	andhi	r2, r0, r4, lsr fp
80002bb0:	80002b34 	andhi	r2, r0, r4, lsr fp
80002bb4:	80002b34 	andhi	r2, r0, r4, lsr fp
80002bb8:	80002b34 	andhi	r2, r0, r4, lsr fp
80002bbc:	80002b34 	andhi	r2, r0, r4, lsr fp
80002bc0:	80002b34 	andhi	r2, r0, r4, lsr fp
80002bc4:	80002c38 	andhi	r2, r0, r8, lsr ip
80002bc8:	80002b34 	andhi	r2, r0, r4, lsr fp
80002bcc:	80002b34 	andhi	r2, r0, r4, lsr fp
80002bd0:	80002b34 	andhi	r2, r0, r4, lsr fp
80002bd4:	80002b34 	andhi	r2, r0, r4, lsr fp
80002bd8:	80002b34 	andhi	r2, r0, r4, lsr fp
80002bdc:	80002b34 	andhi	r2, r0, r4, lsr fp
80002be0:	80002b34 	andhi	r2, r0, r4, lsr fp
80002be4:	80002b34 	andhi	r2, r0, r4, lsr fp
80002be8:	80002b34 	andhi	r2, r0, r4, lsr fp
80002bec:	80002bf0 	strdhi	r2, [r0], -r0
80002bf0:	e59fb21c 	ldr	fp, [pc, #540]	; 80002e14 <_Z12ProcessReadyj+0x384>
80002bf4:	e3050134 	movw	r0, #20788	; 0x5134
80002bf8:	e5971000 	ldr	r1, [r7]
80002bfc:	e3480000 	movt	r0, #32768	; 0x8000
80002c00:	e1a0200b 	mov	r2, fp
80002c04:	e1a0a00b 	mov	sl, fp
80002c08:	eb00053a 	bl	800040f8 <_Z7kprintfPKcz>
80002c0c:	e3a02001 	mov	r2, #1
80002c10:	e3a01000 	mov	r1, #0
80002c14:	e1a0000a 	mov	r0, sl
80002c18:	eb000445 	bl	80003d34 <SpinlockAtomicLock>
80002c1c:	e2503000 	subs	r3, r0, #0
80002c20:	1afffff9 	bne	80002c0c <_Z12ProcessReadyj+0x17c>
80002c24:	e58d3004 	str	r3, [sp, #4]
80002c28:	e308a200 	movw	sl, #33280	; 0x8200
80002c2c:	e597c000 	ldr	ip, [r7]
80002c30:	e348a000 	movt	sl, #32768	; 0x8000
80002c34:	ea000046 	b	80002d54 <_Z12ProcessReadyj+0x2c4>
80002c38:	e59fb1d8 	ldr	fp, [pc, #472]	; 80002e18 <_Z12ProcessReadyj+0x388>
80002c3c:	e3050134 	movw	r0, #20788	; 0x5134
80002c40:	e5971000 	ldr	r1, [r7]
80002c44:	e3480000 	movt	r0, #32768	; 0x8000
80002c48:	e1a0200b 	mov	r2, fp
80002c4c:	e1a0a00b 	mov	sl, fp
80002c50:	eb000528 	bl	800040f8 <_Z7kprintfPKcz>
80002c54:	e3a02001 	mov	r2, #1
80002c58:	e3a01000 	mov	r1, #0
80002c5c:	e1a0000a 	mov	r0, sl
80002c60:	eb000433 	bl	80003d34 <SpinlockAtomicLock>
80002c64:	e2503000 	subs	r3, r0, #0
80002c68:	1afffff9 	bne	80002c54 <_Z12ProcessReadyj+0x1c4>
80002c6c:	e58d3004 	str	r3, [sp, #4]
80002c70:	e308a1f0 	movw	sl, #33264	; 0x81f0
80002c74:	e597c000 	ldr	ip, [r7]
80002c78:	e348a000 	movt	sl, #32768	; 0x8000
80002c7c:	ea000034 	b	80002d54 <_Z12ProcessReadyj+0x2c4>
80002c80:	e59fb194 	ldr	fp, [pc, #404]	; 80002e1c <_Z12ProcessReadyj+0x38c>
80002c84:	e3050134 	movw	r0, #20788	; 0x5134
80002c88:	e5971000 	ldr	r1, [r7]
80002c8c:	e3480000 	movt	r0, #32768	; 0x8000
80002c90:	e1a0200b 	mov	r2, fp
80002c94:	e1a0a00b 	mov	sl, fp
80002c98:	eb000516 	bl	800040f8 <_Z7kprintfPKcz>
80002c9c:	e3a02001 	mov	r2, #1
80002ca0:	e3a01000 	mov	r1, #0
80002ca4:	e1a0000a 	mov	r0, sl
80002ca8:	eb000421 	bl	80003d34 <SpinlockAtomicLock>
80002cac:	e2503000 	subs	r3, r0, #0
80002cb0:	1afffff9 	bne	80002c9c <_Z12ProcessReadyj+0x20c>
80002cb4:	e58d3004 	str	r3, [sp, #4]
80002cb8:	e308a1e0 	movw	sl, #33248	; 0x81e0
80002cbc:	e597c000 	ldr	ip, [r7]
80002cc0:	e348a000 	movt	sl, #32768	; 0x8000
80002cc4:	ea000022 	b	80002d54 <_Z12ProcessReadyj+0x2c4>
80002cc8:	e59fb150 	ldr	fp, [pc, #336]	; 80002e20 <_Z12ProcessReadyj+0x390>
80002ccc:	e3050134 	movw	r0, #20788	; 0x5134
80002cd0:	e5971000 	ldr	r1, [r7]
80002cd4:	e3480000 	movt	r0, #32768	; 0x8000
80002cd8:	e1a0200b 	mov	r2, fp
80002cdc:	e1a0a00b 	mov	sl, fp
80002ce0:	eb000504 	bl	800040f8 <_Z7kprintfPKcz>
80002ce4:	e3a02001 	mov	r2, #1
80002ce8:	e3a01000 	mov	r1, #0
80002cec:	e1a0000a 	mov	r0, sl
80002cf0:	eb00040f 	bl	80003d34 <SpinlockAtomicLock>
80002cf4:	e2503000 	subs	r3, r0, #0
80002cf8:	1afffff9 	bne	80002ce4 <_Z12ProcessReadyj+0x254>
80002cfc:	e58d3004 	str	r3, [sp, #4]
80002d00:	e308a1d0 	movw	sl, #33232	; 0x81d0
80002d04:	e597c000 	ldr	ip, [r7]
80002d08:	e348a000 	movt	sl, #32768	; 0x8000
80002d0c:	ea000010 	b	80002d54 <_Z12ProcessReadyj+0x2c4>
80002d10:	e59fb10c 	ldr	fp, [pc, #268]	; 80002e24 <_Z12ProcessReadyj+0x394>
80002d14:	e3050134 	movw	r0, #20788	; 0x5134
80002d18:	e5971000 	ldr	r1, [r7]
80002d1c:	e3480000 	movt	r0, #32768	; 0x8000
80002d20:	e1a0200b 	mov	r2, fp
80002d24:	e1a0a00b 	mov	sl, fp
80002d28:	eb0004f2 	bl	800040f8 <_Z7kprintfPKcz>
80002d2c:	e3a02001 	mov	r2, #1
80002d30:	e3a01000 	mov	r1, #0
80002d34:	e1a0000a 	mov	r0, sl
80002d38:	eb0003fd 	bl	80003d34 <SpinlockAtomicLock>
80002d3c:	e2503000 	subs	r3, r0, #0
80002d40:	1afffff9 	bne	80002d2c <_Z12ProcessReadyj+0x29c>
80002d44:	e597c000 	ldr	ip, [r7]
80002d48:	e308a1c0 	movw	sl, #33216	; 0x81c0
80002d4c:	e348a000 	movt	sl, #32768	; 0x8000
80002d50:	e58d3004 	str	r3, [sp, #4]
80002d54:	e51b1008 	ldr	r1, [fp, #-8]
80002d58:	e2862051 	add	r2, r6, #81	; 0x51
80002d5c:	e586a055 	str	sl, [r6, #85]	; 0x55
80002d60:	e28a0008 	add	r0, sl, #8
80002d64:	e58ac00c 	str	ip, [sl, #12]
80002d68:	e5861051 	str	r1, [r6, #81]	; 0x51
80002d6c:	e5812004 	str	r2, [r1, #4]
80002d70:	e50b2008 	str	r2, [fp, #-8]
80002d74:	eb0003f6 	bl	80003d54 <SpinlockClear>
80002d78:	e59d3004 	ldr	r3, [sp, #4]
80002d7c:	e305015c 	movw	r0, #20828	; 0x515c
80002d80:	e3480000 	movt	r0, #32768	; 0x8000
80002d84:	e28a1008 	add	r1, sl, #8
80002d88:	e58a300c 	str	r3, [sl, #12]
80002d8c:	eb0004d9 	bl	800040f8 <_Z7kprintfPKcz>
80002d90:	e1a00004 	mov	r0, r4
80002d94:	eb0003ee 	bl	80003d54 <SpinlockClear>
80002d98:	e3a03000 	mov	r3, #0
80002d9c:	e305015c 	movw	r0, #20828	; 0x515c
80002da0:	e586304d 	str	r3, [r6, #77]	; 0x4d
80002da4:	e1a01004 	mov	r1, r4
80002da8:	e3480000 	movt	r0, #32768	; 0x8000
80002dac:	eb0004d1 	bl	800040f8 <_Z7kprintfPKcz>
80002db0:	e5973000 	ldr	r3, [r7]
80002db4:	e1530008 	cmp	r3, r8
80002db8:	0affff66 	beq	80002b58 <_Z12ProcessReadyj+0xc8>
80002dbc:	e5973000 	ldr	r3, [r7]
80002dc0:	e5962040 	ldr	r2, [r6, #64]	; 0x40
80002dc4:	e7993103 	ldr	r3, [r9, r3, lsl #2]
80002dc8:	e5933040 	ldr	r3, [r3, #64]	; 0x40
80002dcc:	e1520003 	cmp	r2, r3
80002dd0:	daffff60 	ble	80002b58 <_Z12ProcessReadyj+0xc8>
80002dd4:	e5973000 	ldr	r3, [r7]
80002dd8:	e1a01006 	mov	r1, r6
80002ddc:	e7990103 	ldr	r0, [r9, r3, lsl #2]
80002de0:	eb00015e 	bl	80003360 <ProcessSwitch>
80002de4:	eaffff5b 	b	80002b58 <_Z12ProcessReadyj+0xc8>
80002de8:	e3e050fe 	mvn	r5, #254	; 0xfe
80002dec:	eaffff59 	b	80002b58 <_Z12ProcessReadyj+0xc8>
80002df0:	e1a00004 	mov	r0, r4
80002df4:	eb0003d6 	bl	80003d54 <SpinlockClear>
80002df8:	e586504d 	str	r5, [r6, #77]	; 0x4d
80002dfc:	e305015c 	movw	r0, #20828	; 0x515c
80002e00:	e3480000 	movt	r0, #32768	; 0x8000
80002e04:	e1a01004 	mov	r1, r4
80002e08:	e3e050fe 	mvn	r5, #254	; 0xfe
80002e0c:	eb0004b9 	bl	800040f8 <_Z7kprintfPKcz>
80002e10:	eaffff50 	b	80002b58 <_Z12ProcessReadyj+0xc8>
80002e14:	80008208 	andhi	r8, r0, r8, lsl #4
80002e18:	800081f8 	strdhi	r8, [r0], -r8	; <UNPREDICTABLE>
80002e1c:	800081e8 	andhi	r8, r0, r8, ror #3
80002e20:	800081d8 	ldrdhi	r8, [r0], -r8	; <UNPREDICTABLE>
80002e24:	800081c8 	andhi	r8, r0, r8, asr #3

80002e28 <_Z14ProcessReleasej>:
80002e28:	e3500902 	cmp	r0, #32768	; 0x8000
80002e2c:	e92d47f0 	push	{r4, r5, r6, r7, r8, r9, sl, lr}
80002e30:	8a000065 	bhi	80002fcc <_Z14ProcessReleasej+0x1a4>
80002e34:	e30f8c0c 	movw	r8, #64524	; 0xfc0c
80002e38:	e3488001 	movt	r8, #32769	; 0x8001
80002e3c:	e7985100 	ldr	r5, [r8, r0, lsl #2]
80002e40:	e3550000 	cmp	r5, #0
80002e44:	0a000060 	beq	80002fcc <_Z14ProcessReleasej+0x1a4>
80002e48:	e30f6c0c 	movw	r6, #64524	; 0xfc0c
80002e4c:	e1a09000 	mov	r9, r0
80002e50:	e3486003 	movt	r6, #32771	; 0x8003
80002e54:	e2854049 	add	r4, r5, #73	; 0x49
80002e58:	e3050134 	movw	r0, #20788	; 0x5134
80002e5c:	e1a02004 	mov	r2, r4
80002e60:	e3480000 	movt	r0, #32768	; 0x8000
80002e64:	e5961000 	ldr	r1, [r6]
80002e68:	eb0004a2 	bl	800040f8 <_Z7kprintfPKcz>
80002e6c:	e3a02001 	mov	r2, #1
80002e70:	e3a01000 	mov	r1, #0
80002e74:	e1a00004 	mov	r0, r4
80002e78:	eb0003ad 	bl	80003d34 <SpinlockAtomicLock>
80002e7c:	e3500000 	cmp	r0, #0
80002e80:	1afffff9 	bne	80002e6c <_Z14ProcessReleasej+0x44>
80002e84:	e5d5a048 	ldrb	sl, [r5, #72]	; 0x48
80002e88:	e5963000 	ldr	r3, [r6]
80002e8c:	e35a0000 	cmp	sl, #0
80002e90:	e585304d 	str	r3, [r5, #77]	; 0x4d
80002e94:	0a00004e 	beq	80002fd4 <_Z14ProcessReleasej+0x1ac>
80002e98:	e595303c 	ldr	r3, [r5, #60]	; 0x3c
80002e9c:	e2433001 	sub	r3, r3, #1
80002ea0:	e3530006 	cmp	r3, #6
80002ea4:	979ff103 	ldrls	pc, [pc, r3, lsl #2]
80002ea8:	ea000006 	b	80002ec8 <_Z14ProcessReleasej+0xa0>
80002eac:	80002ef4 	strdhi	r2, [r0], -r4
80002eb0:	80002ec8 	andhi	r2, r0, r8, asr #29
80002eb4:	80002ef4 	strdhi	r2, [r0], -r4
80002eb8:	80002ef4 	strdhi	r2, [r0], -r4
80002ebc:	80002ef4 	strdhi	r2, [r0], -r4
80002ec0:	80002ef4 	strdhi	r2, [r0], -r4
80002ec4:	80002ec8 	andhi	r2, r0, r8, asr #29
80002ec8:	e1a00004 	mov	r0, r4
80002ecc:	e3e070fe 	mvn	r7, #254	; 0xfe
80002ed0:	eb00039f 	bl	80003d54 <SpinlockClear>
80002ed4:	e3a03000 	mov	r3, #0
80002ed8:	e305015c 	movw	r0, #20828	; 0x515c
80002edc:	e585304d 	str	r3, [r5, #77]	; 0x4d
80002ee0:	e1a01004 	mov	r1, r4
80002ee4:	e3480000 	movt	r0, #32768	; 0x8000
80002ee8:	eb000482 	bl	800040f8 <_Z7kprintfPKcz>
80002eec:	e1a00007 	mov	r0, r7
80002ef0:	e8bd87f0 	pop	{r4, r5, r6, r7, r8, r9, sl, pc}
80002ef4:	e59f20fc 	ldr	r2, [pc, #252]	; 80002ff8 <_Z14ProcessReleasej+0x1d0>
80002ef8:	e3050134 	movw	r0, #20788	; 0x5134
80002efc:	e5961000 	ldr	r1, [r6]
80002f00:	e3480000 	movt	r0, #32768	; 0x8000
80002f04:	e1a0a002 	mov	sl, r2
80002f08:	eb00047a 	bl	800040f8 <_Z7kprintfPKcz>
80002f0c:	e3a02001 	mov	r2, #1
80002f10:	e3a01000 	mov	r1, #0
80002f14:	e1a0000a 	mov	r0, sl
80002f18:	eb000385 	bl	80003d34 <SpinlockAtomicLock>
80002f1c:	e2507000 	subs	r7, r0, #0
80002f20:	1afffff9 	bne	80002f0c <_Z14ProcessReleasej+0xe4>
80002f24:	e5961000 	ldr	r1, [r6]
80002f28:	e308a0a0 	movw	sl, #32928	; 0x80a0
80002f2c:	e348a000 	movt	sl, #32768	; 0x8000
80002f30:	e2853051 	add	r3, r5, #81	; 0x51
80002f34:	e5952051 	ldr	r2, [r5, #81]	; 0x51
80002f38:	e28a0008 	add	r0, sl, #8
80002f3c:	e58a100c 	str	r1, [sl, #12]
80002f40:	e5951055 	ldr	r1, [r5, #85]	; 0x55
80002f44:	e5812000 	str	r2, [r1]
80002f48:	e5821004 	str	r1, [r2, #4]
80002f4c:	e5853051 	str	r3, [r5, #81]	; 0x51
80002f50:	e5853055 	str	r3, [r5, #85]	; 0x55
80002f54:	eb00037e 	bl	80003d54 <SpinlockClear>
80002f58:	e58a700c 	str	r7, [sl, #12]
80002f5c:	e305015c 	movw	r0, #20828	; 0x515c
80002f60:	e3480000 	movt	r0, #32768	; 0x8000
80002f64:	e28a1008 	add	r1, sl, #8
80002f68:	eb000462 	bl	800040f8 <_Z7kprintfPKcz>
80002f6c:	e1a00009 	mov	r0, r9
80002f70:	ebfffec6 	bl	80002a90 <_Z12ProcessReadyj>
80002f74:	e5c57048 	strb	r7, [r5, #72]	; 0x48
80002f78:	e1a00004 	mov	r0, r4
80002f7c:	eb000374 	bl	80003d54 <SpinlockClear>
80002f80:	e585704d 	str	r7, [r5, #77]	; 0x4d
80002f84:	e305015c 	movw	r0, #20828	; 0x515c
80002f88:	e3480000 	movt	r0, #32768	; 0x8000
80002f8c:	e1a01004 	mov	r1, r4
80002f90:	eb000458 	bl	800040f8 <_Z7kprintfPKcz>
80002f94:	e5963000 	ldr	r3, [r6]
80002f98:	e1530009 	cmp	r3, r9
80002f9c:	0affffd2 	beq	80002eec <_Z14ProcessReleasej+0xc4>
80002fa0:	e5963000 	ldr	r3, [r6]
80002fa4:	e5952040 	ldr	r2, [r5, #64]	; 0x40
80002fa8:	e7983103 	ldr	r3, [r8, r3, lsl #2]
80002fac:	e5933040 	ldr	r3, [r3, #64]	; 0x40
80002fb0:	e1520003 	cmp	r2, r3
80002fb4:	daffffcc 	ble	80002eec <_Z14ProcessReleasej+0xc4>
80002fb8:	e5963000 	ldr	r3, [r6]
80002fbc:	e1a01005 	mov	r1, r5
80002fc0:	e7980103 	ldr	r0, [r8, r3, lsl #2]
80002fc4:	eb0000e5 	bl	80003360 <ProcessSwitch>
80002fc8:	eaffffc7 	b	80002eec <_Z14ProcessReleasej+0xc4>
80002fcc:	e3e070fe 	mvn	r7, #254	; 0xfe
80002fd0:	eaffffc5 	b	80002eec <_Z14ProcessReleasej+0xc4>
80002fd4:	e1a00004 	mov	r0, r4
80002fd8:	e3e070fe 	mvn	r7, #254	; 0xfe
80002fdc:	eb00035c 	bl	80003d54 <SpinlockClear>
80002fe0:	e585a04d 	str	sl, [r5, #77]	; 0x4d
80002fe4:	e305015c 	movw	r0, #20828	; 0x515c
80002fe8:	e3480000 	movt	r0, #32768	; 0x8000
80002fec:	e1a01004 	mov	r1, r4
80002ff0:	eb000440 	bl	800040f8 <_Z7kprintfPKcz>
80002ff4:	eaffffbc 	b	80002eec <_Z14ProcessReleasej+0xc4>
80002ff8:	800080a8 	andhi	r8, r0, r8, lsr #1

80002ffc <_Z17ProcessReschedulev>:
80002ffc:	e92d47f0 	push	{r4, r5, r6, r7, r8, r9, sl, lr}
80003000:	e3084200 	movw	r4, #33280	; 0x8200
80003004:	e3484000 	movt	r4, #32768	; 0x8000
80003008:	e305087c 	movw	r0, #22652	; 0x587c
8000300c:	e3480000 	movt	r0, #32768	; 0x8000
80003010:	e30f5c0c 	movw	r5, #64524	; 0xfc0c
80003014:	e3485003 	movt	r5, #32771	; 0x8003
80003018:	eb000436 	bl	800040f8 <_Z7kprintfPKcz>
8000301c:	e5941004 	ldr	r1, [r4, #4]
80003020:	e30f3c0c 	movw	r3, #64524	; 0xfc0c
80003024:	e5952000 	ldr	r2, [r5]
80003028:	e3483001 	movt	r3, #32769	; 0x8001
8000302c:	e1510004 	cmp	r1, r4
80003030:	e7938102 	ldr	r8, [r3, r2, lsl #2]
80003034:	0a00002d 	beq	800030f0 <_Z17ProcessReschedulev+0xf4>
80003038:	e5951000 	ldr	r1, [r5]
8000303c:	e2849008 	add	r9, r4, #8
80003040:	e3050134 	movw	r0, #20788	; 0x5134
80003044:	e1a02009 	mov	r2, r9
80003048:	e3480000 	movt	r0, #32768	; 0x8000
8000304c:	e1a06009 	mov	r6, r9
80003050:	eb000428 	bl	800040f8 <_Z7kprintfPKcz>
80003054:	e3a02001 	mov	r2, #1
80003058:	e3a01000 	mov	r1, #0
8000305c:	e1a00006 	mov	r0, r6
80003060:	eb000333 	bl	80003d34 <SpinlockAtomicLock>
80003064:	e2507000 	subs	r7, r0, #0
80003068:	1afffff9 	bne	80003054 <_Z17ProcessReschedulev+0x58>
8000306c:	e5943004 	ldr	r3, [r4, #4]
80003070:	e5952000 	ldr	r2, [r5]
80003074:	e5931000 	ldr	r1, [r3]
80003078:	e2436051 	sub	r6, r3, #81	; 0x51
8000307c:	e5930004 	ldr	r0, [r3, #4]
80003080:	e584200c 	str	r2, [r4, #12]
80003084:	e5801000 	str	r1, [r0]
80003088:	e5192008 	ldr	r2, [r9, #-8]
8000308c:	e5810004 	str	r0, [r1, #4]
80003090:	e5093008 	str	r3, [r9, #-8]
80003094:	e59f02b4 	ldr	r0, [pc, #692]	; 80003350 <_Z17ProcessReschedulev+0x354>
80003098:	e8830014 	stm	r3, {r2, r4}
8000309c:	e5823004 	str	r3, [r2, #4]
800030a0:	eb00032b 	bl	80003d54 <SpinlockClear>
800030a4:	e59f12a4 	ldr	r1, [pc, #676]	; 80003350 <_Z17ProcessReschedulev+0x354>
800030a8:	e305015c 	movw	r0, #20828	; 0x515c
800030ac:	e3480000 	movt	r0, #32768	; 0x8000
800030b0:	e584700c 	str	r7, [r4, #12]
800030b4:	eb00040f 	bl	800040f8 <_Z7kprintfPKcz>
800030b8:	e3051860 	movw	r1, #22624	; 0x5860
800030bc:	e3481000 	movt	r1, #32768	; 0x8000
800030c0:	e1560008 	cmp	r6, r8
800030c4:	0a000032 	beq	80003194 <_Z17ProcessReschedulev+0x198>
800030c8:	e596200c 	ldr	r2, [r6, #12]
800030cc:	e30508f4 	movw	r0, #22772	; 0x58f4
800030d0:	e3480000 	movt	r0, #32768	; 0x8000
800030d4:	eb000407 	bl	800040f8 <_Z7kprintfPKcz>
800030d8:	e596300c 	ldr	r3, [r6, #12]
800030dc:	e1a00008 	mov	r0, r8
800030e0:	e1a01006 	mov	r1, r6
800030e4:	e5853000 	str	r3, [r5]
800030e8:	e8bd47f0 	pop	{r4, r5, r6, r7, r8, r9, sl, lr}
800030ec:	ea00009b 	b	80003360 <ProcessSwitch>
800030f0:	e30841f0 	movw	r4, #33264	; 0x81f0
800030f4:	e3484000 	movt	r4, #32768	; 0x8000
800030f8:	e5943004 	ldr	r3, [r4, #4]
800030fc:	e1530004 	cmp	r3, r4
80003100:	0a000029 	beq	800031ac <_Z17ProcessReschedulev+0x1b0>
80003104:	e5951000 	ldr	r1, [r5]
80003108:	e2849008 	add	r9, r4, #8
8000310c:	e3050134 	movw	r0, #20788	; 0x5134
80003110:	e1a02009 	mov	r2, r9
80003114:	e3480000 	movt	r0, #32768	; 0x8000
80003118:	e1a06009 	mov	r6, r9
8000311c:	eb0003f5 	bl	800040f8 <_Z7kprintfPKcz>
80003120:	e3a02001 	mov	r2, #1
80003124:	e3a01000 	mov	r1, #0
80003128:	e1a00006 	mov	r0, r6
8000312c:	eb000300 	bl	80003d34 <SpinlockAtomicLock>
80003130:	e2507000 	subs	r7, r0, #0
80003134:	1afffff9 	bne	80003120 <_Z17ProcessReschedulev+0x124>
80003138:	e5943004 	ldr	r3, [r4, #4]
8000313c:	e5952000 	ldr	r2, [r5]
80003140:	e5931000 	ldr	r1, [r3]
80003144:	e2436051 	sub	r6, r3, #81	; 0x51
80003148:	e5930004 	ldr	r0, [r3, #4]
8000314c:	e584200c 	str	r2, [r4, #12]
80003150:	e5801000 	str	r1, [r0]
80003154:	e5192008 	ldr	r2, [r9, #-8]
80003158:	e5810004 	str	r0, [r1, #4]
8000315c:	e5093008 	str	r3, [r9, #-8]
80003160:	e59f01ec 	ldr	r0, [pc, #492]	; 80003354 <_Z17ProcessReschedulev+0x358>
80003164:	e8830014 	stm	r3, {r2, r4}
80003168:	e5823004 	str	r3, [r2, #4]
8000316c:	eb0002f8 	bl	80003d54 <SpinlockClear>
80003170:	e59f11dc 	ldr	r1, [pc, #476]	; 80003354 <_Z17ProcessReschedulev+0x358>
80003174:	e305015c 	movw	r0, #20828	; 0x515c
80003178:	e3480000 	movt	r0, #32768	; 0x8000
8000317c:	e584700c 	str	r7, [r4, #12]
80003180:	eb0003dc 	bl	800040f8 <_Z7kprintfPKcz>
80003184:	e1560008 	cmp	r6, r8
80003188:	e3051864 	movw	r1, #22628	; 0x5864
8000318c:	e3481000 	movt	r1, #32768	; 0x8000
80003190:	1affffcc 	bne	800030c8 <_Z17ProcessReschedulev+0xcc>
80003194:	e30508c0 	movw	r0, #22720	; 0x58c0
80003198:	e3480000 	movt	r0, #32768	; 0x8000
8000319c:	eb0003d5 	bl	800040f8 <_Z7kprintfPKcz>
800031a0:	e5963040 	ldr	r3, [r6, #64]	; 0x40
800031a4:	e5863044 	str	r3, [r6, #68]	; 0x44
800031a8:	e8bd87f0 	pop	{r4, r5, r6, r7, r8, r9, sl, pc}
800031ac:	e30841e0 	movw	r4, #33248	; 0x81e0
800031b0:	e3484000 	movt	r4, #32768	; 0x8000
800031b4:	e5943004 	ldr	r3, [r4, #4]
800031b8:	e1530004 	cmp	r3, r4
800031bc:	0a000022 	beq	8000324c <_Z17ProcessReschedulev+0x250>
800031c0:	e5951000 	ldr	r1, [r5]
800031c4:	e2849008 	add	r9, r4, #8
800031c8:	e3050134 	movw	r0, #20788	; 0x5134
800031cc:	e1a02009 	mov	r2, r9
800031d0:	e3480000 	movt	r0, #32768	; 0x8000
800031d4:	e1a06009 	mov	r6, r9
800031d8:	eb0003c6 	bl	800040f8 <_Z7kprintfPKcz>
800031dc:	e3a02001 	mov	r2, #1
800031e0:	e3a01000 	mov	r1, #0
800031e4:	e1a00006 	mov	r0, r6
800031e8:	eb0002d1 	bl	80003d34 <SpinlockAtomicLock>
800031ec:	e2507000 	subs	r7, r0, #0
800031f0:	1afffff9 	bne	800031dc <_Z17ProcessReschedulev+0x1e0>
800031f4:	e5943004 	ldr	r3, [r4, #4]
800031f8:	e5952000 	ldr	r2, [r5]
800031fc:	e5931000 	ldr	r1, [r3]
80003200:	e2436051 	sub	r6, r3, #81	; 0x51
80003204:	e5930004 	ldr	r0, [r3, #4]
80003208:	e584200c 	str	r2, [r4, #12]
8000320c:	e5801000 	str	r1, [r0]
80003210:	e5192008 	ldr	r2, [r9, #-8]
80003214:	e5810004 	str	r0, [r1, #4]
80003218:	e5093008 	str	r3, [r9, #-8]
8000321c:	e59f0134 	ldr	r0, [pc, #308]	; 80003358 <_Z17ProcessReschedulev+0x35c>
80003220:	e8830014 	stm	r3, {r2, r4}
80003224:	e5823004 	str	r3, [r2, #4]
80003228:	eb0002c9 	bl	80003d54 <SpinlockClear>
8000322c:	e59f1124 	ldr	r1, [pc, #292]	; 80003358 <_Z17ProcessReschedulev+0x35c>
80003230:	e305015c 	movw	r0, #20828	; 0x515c
80003234:	e3480000 	movt	r0, #32768	; 0x8000
80003238:	e584700c 	str	r7, [r4, #12]
8000323c:	eb0003ad 	bl	800040f8 <_Z7kprintfPKcz>
80003240:	e305186c 	movw	r1, #22636	; 0x586c
80003244:	e3481000 	movt	r1, #32768	; 0x8000
80003248:	eaffff9c 	b	800030c0 <_Z17ProcessReschedulev+0xc4>
8000324c:	e30841d0 	movw	r4, #33232	; 0x81d0
80003250:	e3484000 	movt	r4, #32768	; 0x8000
80003254:	e5943004 	ldr	r3, [r4, #4]
80003258:	e1530004 	cmp	r3, r4
8000325c:	0a00000f 	beq	800032a0 <_Z17ProcessReschedulev+0x2a4>
80003260:	e5951000 	ldr	r1, [r5]
80003264:	e3050134 	movw	r0, #20788	; 0x5134
80003268:	e3480000 	movt	r0, #32768	; 0x8000
8000326c:	e2842008 	add	r2, r4, #8
80003270:	e1a06002 	mov	r6, r2
80003274:	eb00039f 	bl	800040f8 <_Z7kprintfPKcz>
80003278:	e3a02001 	mov	r2, #1
8000327c:	e3a01000 	mov	r1, #0
80003280:	e1a00006 	mov	r0, r6
80003284:	eb0002aa 	bl	80003d34 <SpinlockAtomicLock>
80003288:	e3500000 	cmp	r0, #0
8000328c:	1afffff9 	bne	80003278 <_Z17ProcessReschedulev+0x27c>
80003290:	e5953000 	ldr	r3, [r5]
80003294:	e5902051 	ldr	r2, [r0, #81]	; 0x51
80003298:	e584300c 	str	r3, [r4, #12]
8000329c:	e7f000f0 	udf	#0
800032a0:	e30841c0 	movw	r4, #33216	; 0x81c0
800032a4:	e3484000 	movt	r4, #32768	; 0x8000
800032a8:	e5943004 	ldr	r3, [r4, #4]
800032ac:	e1530004 	cmp	r3, r4
800032b0:	0a000022 	beq	80003340 <_Z17ProcessReschedulev+0x344>
800032b4:	e5951000 	ldr	r1, [r5]
800032b8:	e2849008 	add	r9, r4, #8
800032bc:	e3050134 	movw	r0, #20788	; 0x5134
800032c0:	e1a02009 	mov	r2, r9
800032c4:	e3480000 	movt	r0, #32768	; 0x8000
800032c8:	e1a06009 	mov	r6, r9
800032cc:	eb000389 	bl	800040f8 <_Z7kprintfPKcz>
800032d0:	e3a02001 	mov	r2, #1
800032d4:	e3a01000 	mov	r1, #0
800032d8:	e1a00006 	mov	r0, r6
800032dc:	eb000294 	bl	80003d34 <SpinlockAtomicLock>
800032e0:	e2507000 	subs	r7, r0, #0
800032e4:	1afffff9 	bne	800032d0 <_Z17ProcessReschedulev+0x2d4>
800032e8:	e5943004 	ldr	r3, [r4, #4]
800032ec:	e5952000 	ldr	r2, [r5]
800032f0:	e5931000 	ldr	r1, [r3]
800032f4:	e2436051 	sub	r6, r3, #81	; 0x51
800032f8:	e5930004 	ldr	r0, [r3, #4]
800032fc:	e584200c 	str	r2, [r4, #12]
80003300:	e5801000 	str	r1, [r0]
80003304:	e5192008 	ldr	r2, [r9, #-8]
80003308:	e5810004 	str	r0, [r1, #4]
8000330c:	e5093008 	str	r3, [r9, #-8]
80003310:	e59f0044 	ldr	r0, [pc, #68]	; 8000335c <_Z17ProcessReschedulev+0x360>
80003314:	e8830014 	stm	r3, {r2, r4}
80003318:	e5823004 	str	r3, [r2, #4]
8000331c:	eb00028c 	bl	80003d54 <SpinlockClear>
80003320:	e59f1034 	ldr	r1, [pc, #52]	; 8000335c <_Z17ProcessReschedulev+0x360>
80003324:	e305015c 	movw	r0, #20828	; 0x515c
80003328:	e3480000 	movt	r0, #32768	; 0x8000
8000332c:	e584700c 	str	r7, [r4, #12]
80003330:	eb000370 	bl	800040f8 <_Z7kprintfPKcz>
80003334:	e3051874 	movw	r1, #22644	; 0x5874
80003338:	e3481000 	movt	r1, #32768	; 0x8000
8000333c:	eaffff5f 	b	800030c0 <_Z17ProcessReschedulev+0xc4>
80003340:	e3050898 	movw	r0, #22680	; 0x5898
80003344:	e3480000 	movt	r0, #32768	; 0x8000
80003348:	eb00036a 	bl	800040f8 <_Z7kprintfPKcz>
8000334c:	eb0003f4 	bl	80004324 <Halt>
80003350:	80008208 	andhi	r8, r0, r8, lsl #4
80003354:	800081f8 	strdhi	r8, [r0], -r8	; <UNPREDICTABLE>
80003358:	800081e8 	andhi	r8, r0, r8, ror #3
8000335c:	800081c8 	andhi	r8, r0, r8, asr #3

80003360 <ProcessSwitch>:
80003360:	e1a0f00e 	mov	pc, lr

80003364 <_Z16ProcessTerminatej>:
80003364:	e3500902 	cmp	r0, #32768	; 0x8000
80003368:	e92d4ff8 	push	{r3, r4, r5, r6, r7, r8, r9, sl, fp, lr}
8000336c:	8a000100 	bhi	80003774 <_Z16ProcessTerminatej+0x410>
80003370:	e30f3c0c 	movw	r3, #64524	; 0xfc0c
80003374:	e3483001 	movt	r3, #32769	; 0x8001
80003378:	e7934100 	ldr	r4, [r3, r0, lsl #2]
8000337c:	e3540000 	cmp	r4, #0
80003380:	0a0000fb 	beq	80003774 <_Z16ProcessTerminatej+0x410>
80003384:	e30f7c0c 	movw	r7, #64524	; 0xfc0c
80003388:	e1a09000 	mov	r9, r0
8000338c:	e3487003 	movt	r7, #32771	; 0x8003
80003390:	e2846049 	add	r6, r4, #73	; 0x49
80003394:	e3050134 	movw	r0, #20788	; 0x5134
80003398:	e1a02006 	mov	r2, r6
8000339c:	e3480000 	movt	r0, #32768	; 0x8000
800033a0:	e5971000 	ldr	r1, [r7]
800033a4:	eb000353 	bl	800040f8 <_Z7kprintfPKcz>
800033a8:	e3a02001 	mov	r2, #1
800033ac:	e3a01000 	mov	r1, #0
800033b0:	e1a00006 	mov	r0, r6
800033b4:	eb00025e 	bl	80003d34 <SpinlockAtomicLock>
800033b8:	e2508000 	subs	r8, r0, #0
800033bc:	1afffff9 	bne	800033a8 <_Z16ProcessTerminatej+0x44>
800033c0:	e594303c 	ldr	r3, [r4, #60]	; 0x3c
800033c4:	e5972000 	ldr	r2, [r7]
800033c8:	e3530007 	cmp	r3, #7
800033cc:	13530002 	cmpne	r3, #2
800033d0:	e584204d 	str	r2, [r4, #77]	; 0x4d
800033d4:	0a0000e8 	beq	8000377c <_Z16ProcessTerminatej+0x418>
800033d8:	e5d42048 	ldrb	r2, [r4, #72]	; 0x48
800033dc:	e3520000 	cmp	r2, #0
800033e0:	1a000074 	bne	800035b8 <_Z16ProcessTerminatej+0x254>
800033e4:	e3530001 	cmp	r3, #1
800033e8:	0a00004f 	beq	8000352c <_Z16ProcessTerminatej+0x1c8>
800033ec:	3a000081 	bcc	800035f8 <_Z16ProcessTerminatej+0x294>
800033f0:	e2433003 	sub	r3, r3, #3
800033f4:	e3530003 	cmp	r3, #3
800033f8:	8a00007e 	bhi	800035f8 <_Z16ProcessTerminatej+0x294>
800033fc:	e59f239c 	ldr	r2, [pc, #924]	; 800037a0 <_Z16ProcessTerminatej+0x43c>
80003400:	e3050134 	movw	r0, #20788	; 0x5134
80003404:	e5971000 	ldr	r1, [r7]
80003408:	e3480000 	movt	r0, #32768	; 0x8000
8000340c:	e1a08002 	mov	r8, r2
80003410:	eb000338 	bl	800040f8 <_Z7kprintfPKcz>
80003414:	e3a02001 	mov	r2, #1
80003418:	e3a01000 	mov	r1, #0
8000341c:	e1a00008 	mov	r0, r8
80003420:	eb000243 	bl	80003d34 <SpinlockAtomicLock>
80003424:	e2505000 	subs	r5, r0, #0
80003428:	1afffff9 	bne	80003414 <_Z16ProcessTerminatej+0xb0>
8000342c:	e5972000 	ldr	r2, [r7]
80003430:	e30880b0 	movw	r8, #32944	; 0x80b0
80003434:	e3488000 	movt	r8, #32768	; 0x8000
80003438:	e5943051 	ldr	r3, [r4, #81]	; 0x51
8000343c:	e284a051 	add	sl, r4, #81	; 0x51
80003440:	e588200c 	str	r2, [r8, #12]
80003444:	e2880008 	add	r0, r8, #8
80003448:	e5942055 	ldr	r2, [r4, #85]	; 0x55
8000344c:	e5823000 	str	r3, [r2]
80003450:	e5832004 	str	r2, [r3, #4]
80003454:	e584a051 	str	sl, [r4, #81]	; 0x51
80003458:	e584a055 	str	sl, [r4, #85]	; 0x55
8000345c:	eb00023c 	bl	80003d54 <SpinlockClear>
80003460:	e588500c 	str	r5, [r8, #12]
80003464:	e305015c 	movw	r0, #20828	; 0x515c
80003468:	e3480000 	movt	r0, #32768	; 0x8000
8000346c:	e2881008 	add	r1, r8, #8
80003470:	eb000320 	bl	800040f8 <_Z7kprintfPKcz>
80003474:	e59fb328 	ldr	fp, [pc, #808]	; 800037a4 <_Z16ProcessTerminatej+0x440>
80003478:	e3050134 	movw	r0, #20788	; 0x5134
8000347c:	e5971000 	ldr	r1, [r7]
80003480:	e3480000 	movt	r0, #32768	; 0x8000
80003484:	e1a0200b 	mov	r2, fp
80003488:	e1a0800b 	mov	r8, fp
8000348c:	eb000319 	bl	800040f8 <_Z7kprintfPKcz>
80003490:	e3a02001 	mov	r2, #1
80003494:	e3a01000 	mov	r1, #0
80003498:	e1a00008 	mov	r0, r8
8000349c:	eb000224 	bl	80003d34 <SpinlockAtomicLock>
800034a0:	e2505000 	subs	r5, r0, #0
800034a4:	1afffff9 	bne	80003490 <_Z16ProcessTerminatej+0x12c>
800034a8:	e51b3008 	ldr	r3, [fp, #-8]
800034ac:	e3088090 	movw	r8, #32912	; 0x8090
800034b0:	e5972000 	ldr	r2, [r7]
800034b4:	e3488000 	movt	r8, #32768	; 0x8000
800034b8:	e5843051 	str	r3, [r4, #81]	; 0x51
800034bc:	e2880008 	add	r0, r8, #8
800034c0:	e588200c 	str	r2, [r8, #12]
800034c4:	e5848055 	str	r8, [r4, #85]	; 0x55
800034c8:	e50ba008 	str	sl, [fp, #-8]
800034cc:	e583a004 	str	sl, [r3, #4]
800034d0:	eb00021f 	bl	80003d54 <SpinlockClear>
800034d4:	e588500c 	str	r5, [r8, #12]
800034d8:	e305015c 	movw	r0, #20828	; 0x515c
800034dc:	e3480000 	movt	r0, #32768	; 0x8000
800034e0:	e2881008 	add	r1, r8, #8
800034e4:	eb000303 	bl	800040f8 <_Z7kprintfPKcz>
800034e8:	e5c4503d 	strb	r5, [r4, #61]	; 0x3d
800034ec:	e3a03002 	mov	r3, #2
800034f0:	e5c4303c 	strb	r3, [r4, #60]	; 0x3c
800034f4:	e1a00006 	mov	r0, r6
800034f8:	e5c4503e 	strb	r5, [r4, #62]	; 0x3e
800034fc:	e5c4503f 	strb	r5, [r4, #63]	; 0x3f
80003500:	eb000213 	bl	80003d54 <SpinlockClear>
80003504:	e584504d 	str	r5, [r4, #77]	; 0x4d
80003508:	e305015c 	movw	r0, #20828	; 0x515c
8000350c:	e3480000 	movt	r0, #32768	; 0x8000
80003510:	e1a01006 	mov	r1, r6
80003514:	eb0002f7 	bl	800040f8 <_Z7kprintfPKcz>
80003518:	e5973000 	ldr	r3, [r7]
8000351c:	e1530009 	cmp	r3, r9
80003520:	0a000036 	beq	80003600 <_Z16ProcessTerminatej+0x29c>
80003524:	e1a00005 	mov	r0, r5
80003528:	e8bd8ff8 	pop	{r3, r4, r5, r6, r7, r8, r9, sl, fp, pc}
8000352c:	e5943040 	ldr	r3, [r4, #64]	; 0x40
80003530:	e2433001 	sub	r3, r3, #1
80003534:	e353001d 	cmp	r3, #29
80003538:	979ff103 	ldrls	pc, [pc, r3, lsl #2]
8000353c:	ea000082 	b	8000374c <_Z16ProcessTerminatej+0x3e8>
80003540:	8000364c 	andhi	r3, r0, ip, asr #12
80003544:	8000374c 	andhi	r3, r0, ip, asr #14
80003548:	8000374c 	andhi	r3, r0, ip, asr #14
8000354c:	8000374c 	andhi	r3, r0, ip, asr #14
80003550:	800036cc 	andhi	r3, r0, ip, asr #13
80003554:	8000374c 	andhi	r3, r0, ip, asr #14
80003558:	8000374c 	andhi	r3, r0, ip, asr #14
8000355c:	8000374c 	andhi	r3, r0, ip, asr #14
80003560:	8000374c 	andhi	r3, r0, ip, asr #14
80003564:	8000368c 	andhi	r3, r0, ip, lsl #13
80003568:	8000374c 	andhi	r3, r0, ip, asr #14
8000356c:	8000374c 	andhi	r3, r0, ip, asr #14
80003570:	8000374c 	andhi	r3, r0, ip, asr #14
80003574:	8000374c 	andhi	r3, r0, ip, asr #14
80003578:	8000374c 	andhi	r3, r0, ip, asr #14
8000357c:	8000374c 	andhi	r3, r0, ip, asr #14
80003580:	8000374c 	andhi	r3, r0, ip, asr #14
80003584:	8000374c 	andhi	r3, r0, ip, asr #14
80003588:	8000374c 	andhi	r3, r0, ip, asr #14
8000358c:	8000370c 	andhi	r3, r0, ip, lsl #14
80003590:	8000374c 	andhi	r3, r0, ip, asr #14
80003594:	8000374c 	andhi	r3, r0, ip, asr #14
80003598:	8000374c 	andhi	r3, r0, ip, asr #14
8000359c:	8000374c 	andhi	r3, r0, ip, asr #14
800035a0:	8000374c 	andhi	r3, r0, ip, asr #14
800035a4:	8000374c 	andhi	r3, r0, ip, asr #14
800035a8:	8000374c 	andhi	r3, r0, ip, asr #14
800035ac:	8000374c 	andhi	r3, r0, ip, asr #14
800035b0:	8000374c 	andhi	r3, r0, ip, asr #14
800035b4:	8000360c 	andhi	r3, r0, ip, lsl #12
800035b8:	e59f21e8 	ldr	r2, [pc, #488]	; 800037a8 <_Z16ProcessTerminatej+0x444>
800035bc:	e3050134 	movw	r0, #20788	; 0x5134
800035c0:	e5971000 	ldr	r1, [r7]
800035c4:	e3480000 	movt	r0, #32768	; 0x8000
800035c8:	e1a08002 	mov	r8, r2
800035cc:	eb0002c9 	bl	800040f8 <_Z7kprintfPKcz>
800035d0:	e3a02001 	mov	r2, #1
800035d4:	e3a01000 	mov	r1, #0
800035d8:	e1a00008 	mov	r0, r8
800035dc:	eb0001d4 	bl	80003d34 <SpinlockAtomicLock>
800035e0:	e2505000 	subs	r5, r0, #0
800035e4:	1afffff9 	bne	800035d0 <_Z16ProcessTerminatej+0x26c>
800035e8:	e5972000 	ldr	r2, [r7]
800035ec:	e30880a0 	movw	r8, #32928	; 0x80a0
800035f0:	e3488000 	movt	r8, #32768	; 0x8000
800035f4:	eaffff8f 	b	80003438 <_Z16ProcessTerminatej+0xd4>
800035f8:	e284a051 	add	sl, r4, #81	; 0x51
800035fc:	eaffff9c 	b	80003474 <_Z16ProcessTerminatej+0x110>
80003600:	ebfffe7d 	bl	80002ffc <_Z17ProcessReschedulev>
80003604:	e1a00005 	mov	r0, r5
80003608:	e8bd8ff8 	pop	{r3, r4, r5, r6, r7, r8, r9, sl, fp, pc}
8000360c:	e59f2198 	ldr	r2, [pc, #408]	; 800037ac <_Z16ProcessTerminatej+0x448>
80003610:	e3050134 	movw	r0, #20788	; 0x5134
80003614:	e5971000 	ldr	r1, [r7]
80003618:	e3480000 	movt	r0, #32768	; 0x8000
8000361c:	e1a08002 	mov	r8, r2
80003620:	eb0002b4 	bl	800040f8 <_Z7kprintfPKcz>
80003624:	e3a02001 	mov	r2, #1
80003628:	e3a01000 	mov	r1, #0
8000362c:	e1a00008 	mov	r0, r8
80003630:	eb0001bf 	bl	80003d34 <SpinlockAtomicLock>
80003634:	e2505000 	subs	r5, r0, #0
80003638:	1afffff9 	bne	80003624 <_Z16ProcessTerminatej+0x2c0>
8000363c:	e5972000 	ldr	r2, [r7]
80003640:	e3088200 	movw	r8, #33280	; 0x8200
80003644:	e3488000 	movt	r8, #32768	; 0x8000
80003648:	eaffff7a 	b	80003438 <_Z16ProcessTerminatej+0xd4>
8000364c:	e59f215c 	ldr	r2, [pc, #348]	; 800037b0 <_Z16ProcessTerminatej+0x44c>
80003650:	e3050134 	movw	r0, #20788	; 0x5134
80003654:	e5971000 	ldr	r1, [r7]
80003658:	e3480000 	movt	r0, #32768	; 0x8000
8000365c:	e1a08002 	mov	r8, r2
80003660:	eb0002a4 	bl	800040f8 <_Z7kprintfPKcz>
80003664:	e3a02001 	mov	r2, #1
80003668:	e3a01000 	mov	r1, #0
8000366c:	e1a00008 	mov	r0, r8
80003670:	eb0001af 	bl	80003d34 <SpinlockAtomicLock>
80003674:	e2505000 	subs	r5, r0, #0
80003678:	1afffff9 	bne	80003664 <_Z16ProcessTerminatej+0x300>
8000367c:	e5972000 	ldr	r2, [r7]
80003680:	e30881c0 	movw	r8, #33216	; 0x81c0
80003684:	e3488000 	movt	r8, #32768	; 0x8000
80003688:	eaffff6a 	b	80003438 <_Z16ProcessTerminatej+0xd4>
8000368c:	e59f2120 	ldr	r2, [pc, #288]	; 800037b4 <_Z16ProcessTerminatej+0x450>
80003690:	e3050134 	movw	r0, #20788	; 0x5134
80003694:	e5971000 	ldr	r1, [r7]
80003698:	e3480000 	movt	r0, #32768	; 0x8000
8000369c:	e1a08002 	mov	r8, r2
800036a0:	eb000294 	bl	800040f8 <_Z7kprintfPKcz>
800036a4:	e3a02001 	mov	r2, #1
800036a8:	e3a01000 	mov	r1, #0
800036ac:	e1a00008 	mov	r0, r8
800036b0:	eb00019f 	bl	80003d34 <SpinlockAtomicLock>
800036b4:	e2505000 	subs	r5, r0, #0
800036b8:	1afffff9 	bne	800036a4 <_Z16ProcessTerminatej+0x340>
800036bc:	e5972000 	ldr	r2, [r7]
800036c0:	e30881e0 	movw	r8, #33248	; 0x81e0
800036c4:	e3488000 	movt	r8, #32768	; 0x8000
800036c8:	eaffff5a 	b	80003438 <_Z16ProcessTerminatej+0xd4>
800036cc:	e59f20e4 	ldr	r2, [pc, #228]	; 800037b8 <_Z16ProcessTerminatej+0x454>
800036d0:	e3050134 	movw	r0, #20788	; 0x5134
800036d4:	e5971000 	ldr	r1, [r7]
800036d8:	e3480000 	movt	r0, #32768	; 0x8000
800036dc:	e1a08002 	mov	r8, r2
800036e0:	eb000284 	bl	800040f8 <_Z7kprintfPKcz>
800036e4:	e3a02001 	mov	r2, #1
800036e8:	e3a01000 	mov	r1, #0
800036ec:	e1a00008 	mov	r0, r8
800036f0:	eb00018f 	bl	80003d34 <SpinlockAtomicLock>
800036f4:	e2505000 	subs	r5, r0, #0
800036f8:	1afffff9 	bne	800036e4 <_Z16ProcessTerminatej+0x380>
800036fc:	e5972000 	ldr	r2, [r7]
80003700:	e30881d0 	movw	r8, #33232	; 0x81d0
80003704:	e3488000 	movt	r8, #32768	; 0x8000
80003708:	eaffff4a 	b	80003438 <_Z16ProcessTerminatej+0xd4>
8000370c:	e59f20a8 	ldr	r2, [pc, #168]	; 800037bc <_Z16ProcessTerminatej+0x458>
80003710:	e3050134 	movw	r0, #20788	; 0x5134
80003714:	e5971000 	ldr	r1, [r7]
80003718:	e3480000 	movt	r0, #32768	; 0x8000
8000371c:	e1a08002 	mov	r8, r2
80003720:	eb000274 	bl	800040f8 <_Z7kprintfPKcz>
80003724:	e3a02001 	mov	r2, #1
80003728:	e3a01000 	mov	r1, #0
8000372c:	e1a00008 	mov	r0, r8
80003730:	eb00017f 	bl	80003d34 <SpinlockAtomicLock>
80003734:	e2505000 	subs	r5, r0, #0
80003738:	1afffff9 	bne	80003724 <_Z16ProcessTerminatej+0x3c0>
8000373c:	e5972000 	ldr	r2, [r7]
80003740:	e30881f0 	movw	r8, #33264	; 0x81f0
80003744:	e3488000 	movt	r8, #32768	; 0x8000
80003748:	eaffff3a 	b	80003438 <_Z16ProcessTerminatej+0xd4>
8000374c:	e1a00006 	mov	r0, r6
80003750:	e3e050fe 	mvn	r5, #254	; 0xfe
80003754:	eb00017e 	bl	80003d54 <SpinlockClear>
80003758:	e3a03000 	mov	r3, #0
8000375c:	e305015c 	movw	r0, #20828	; 0x515c
80003760:	e584304d 	str	r3, [r4, #77]	; 0x4d
80003764:	e1a01006 	mov	r1, r6
80003768:	e3480000 	movt	r0, #32768	; 0x8000
8000376c:	eb000261 	bl	800040f8 <_Z7kprintfPKcz>
80003770:	eaffff6b 	b	80003524 <_Z16ProcessTerminatej+0x1c0>
80003774:	e3e050fe 	mvn	r5, #254	; 0xfe
80003778:	eaffff69 	b	80003524 <_Z16ProcessTerminatej+0x1c0>
8000377c:	e1a00006 	mov	r0, r6
80003780:	e3e050fe 	mvn	r5, #254	; 0xfe
80003784:	eb000172 	bl	80003d54 <SpinlockClear>
80003788:	e584804d 	str	r8, [r4, #77]	; 0x4d
8000378c:	e305015c 	movw	r0, #20828	; 0x515c
80003790:	e3480000 	movt	r0, #32768	; 0x8000
80003794:	e1a01006 	mov	r1, r6
80003798:	eb000256 	bl	800040f8 <_Z7kprintfPKcz>
8000379c:	eaffff60 	b	80003524 <_Z16ProcessTerminatej+0x1c0>
800037a0:	800080b8 	strhhi	r8, [r0], -r8	; <UNPREDICTABLE>
800037a4:	80008098 	mulhi	r0, r8, r0
800037a8:	800080a8 	andhi	r8, r0, r8, lsr #1
800037ac:	80008208 	andhi	r8, r0, r8, lsl #4
800037b0:	800081c8 	andhi	r8, r0, r8, asr #3
800037b4:	800081e8 	andhi	r8, r0, r8, ror #3
800037b8:	800081d8 	ldrdhi	r8, [r0], -r8	; <UNPREDICTABLE>
800037bc:	800081f8 	strdhi	r8, [r0], -r8	; <UNPREDICTABLE>

800037c0 <_Z11ProcessWait12ProcStatus_t>:
800037c0:	e92d4ff8 	push	{r3, r4, r5, r6, r7, r8, r9, sl, fp, lr}
800037c4:	e30f6c0c 	movw	r6, #64524	; 0xfc0c
800037c8:	e3486003 	movt	r6, #32771	; 0x8003
800037cc:	e1a09000 	mov	r9, r0
800037d0:	e3050918 	movw	r0, #22808	; 0x5918
800037d4:	e3480000 	movt	r0, #32768	; 0x8000
800037d8:	eb000246 	bl	800040f8 <_Z7kprintfPKcz>
800037dc:	e5963000 	ldr	r3, [r6]
800037e0:	e3530902 	cmp	r3, #32768	; 0x8000
800037e4:	8a0000d6 	bhi	80003b44 <_Z11ProcessWait12ProcStatus_t+0x384>
800037e8:	e5962000 	ldr	r2, [r6]
800037ec:	e30f3c0c 	movw	r3, #64524	; 0xfc0c
800037f0:	e3483001 	movt	r3, #32769	; 0x8001
800037f4:	e7934102 	ldr	r4, [r3, r2, lsl #2]
800037f8:	e3540000 	cmp	r4, #0
800037fc:	0a0000d0 	beq	80003b44 <_Z11ProcessWait12ProcStatus_t+0x384>
80003800:	e5961000 	ldr	r1, [r6]
80003804:	e2845049 	add	r5, r4, #73	; 0x49
80003808:	e3050134 	movw	r0, #20788	; 0x5134
8000380c:	e1a02005 	mov	r2, r5
80003810:	e3480000 	movt	r0, #32768	; 0x8000
80003814:	eb000237 	bl	800040f8 <_Z7kprintfPKcz>
80003818:	e3a02001 	mov	r2, #1
8000381c:	e3a01000 	mov	r1, #0
80003820:	e1a00005 	mov	r0, r5
80003824:	eb000142 	bl	80003d34 <SpinlockAtomicLock>
80003828:	e2508000 	subs	r8, r0, #0
8000382c:	1afffff9 	bne	80003818 <_Z11ProcessWait12ProcStatus_t+0x58>
80003830:	e5d43048 	ldrb	r3, [r4, #72]	; 0x48
80003834:	e5962000 	ldr	r2, [r6]
80003838:	e3530000 	cmp	r3, #0
8000383c:	e584204d 	str	r2, [r4, #77]	; 0x4d
80003840:	1a0000c1 	bne	80003b4c <_Z11ProcessWait12ProcStatus_t+0x38c>
80003844:	e3050934 	movw	r0, #22836	; 0x5934
80003848:	e3480000 	movt	r0, #32768	; 0x8000
8000384c:	eb000229 	bl	800040f8 <_Z7kprintfPKcz>
80003850:	e5943040 	ldr	r3, [r4, #64]	; 0x40
80003854:	e2433001 	sub	r3, r3, #1
80003858:	e353001d 	cmp	r3, #29
8000385c:	979ff103 	ldrls	pc, [pc, r3, lsl #2]
80003860:	ea0000ac 	b	80003b18 <_Z11ProcessWait12ProcStatus_t+0x358>
80003864:	8000391c 	andhi	r3, r0, ip, lsl r9
80003868:	80003b18 	andhi	r3, r0, r8, lsl fp
8000386c:	80003b18 	andhi	r3, r0, r8, lsl fp
80003870:	80003b18 	andhi	r3, r0, r8, lsl fp
80003874:	8000399c 	mulhi	r0, ip, r9
80003878:	80003b18 	andhi	r3, r0, r8, lsl fp
8000387c:	80003b18 	andhi	r3, r0, r8, lsl fp
80003880:	80003b18 	andhi	r3, r0, r8, lsl fp
80003884:	80003b18 	andhi	r3, r0, r8, lsl fp
80003888:	8000395c 	andhi	r3, r0, ip, asr r9
8000388c:	80003b18 	andhi	r3, r0, r8, lsl fp
80003890:	80003b18 	andhi	r3, r0, r8, lsl fp
80003894:	80003b18 	andhi	r3, r0, r8, lsl fp
80003898:	80003b18 	andhi	r3, r0, r8, lsl fp
8000389c:	80003b18 	andhi	r3, r0, r8, lsl fp
800038a0:	80003b18 	andhi	r3, r0, r8, lsl fp
800038a4:	80003b18 	andhi	r3, r0, r8, lsl fp
800038a8:	80003b18 	andhi	r3, r0, r8, lsl fp
800038ac:	80003b18 	andhi	r3, r0, r8, lsl fp
800038b0:	800039dc 	ldrdhi	r3, [r0], -ip
800038b4:	80003b18 	andhi	r3, r0, r8, lsl fp
800038b8:	80003b18 	andhi	r3, r0, r8, lsl fp
800038bc:	80003b18 	andhi	r3, r0, r8, lsl fp
800038c0:	80003b18 	andhi	r3, r0, r8, lsl fp
800038c4:	80003b18 	andhi	r3, r0, r8, lsl fp
800038c8:	80003b18 	andhi	r3, r0, r8, lsl fp
800038cc:	80003b18 	andhi	r3, r0, r8, lsl fp
800038d0:	80003b18 	andhi	r3, r0, r8, lsl fp
800038d4:	80003b18 	andhi	r3, r0, r8, lsl fp
800038d8:	800038dc 	ldrdhi	r3, [r0], -ip
800038dc:	e59f228c 	ldr	r2, [pc, #652]	; 80003b70 <_Z11ProcessWait12ProcStatus_t+0x3b0>
800038e0:	e3050134 	movw	r0, #20788	; 0x5134
800038e4:	e5961000 	ldr	r1, [r6]
800038e8:	e3480000 	movt	r0, #32768	; 0x8000
800038ec:	e1a08002 	mov	r8, r2
800038f0:	eb000200 	bl	800040f8 <_Z7kprintfPKcz>
800038f4:	e3a02001 	mov	r2, #1
800038f8:	e3a01000 	mov	r1, #0
800038fc:	e1a00008 	mov	r0, r8
80003900:	eb00010b 	bl	80003d34 <SpinlockAtomicLock>
80003904:	e2507000 	subs	r7, r0, #0
80003908:	1afffff9 	bne	800038f4 <_Z11ProcessWait12ProcStatus_t+0x134>
8000390c:	e5962000 	ldr	r2, [r6]
80003910:	e308a200 	movw	sl, #33280	; 0x8200
80003914:	e348a000 	movt	sl, #32768	; 0x8000
80003918:	ea00003e 	b	80003a18 <_Z11ProcessWait12ProcStatus_t+0x258>
8000391c:	e59f2250 	ldr	r2, [pc, #592]	; 80003b74 <_Z11ProcessWait12ProcStatus_t+0x3b4>
80003920:	e3050134 	movw	r0, #20788	; 0x5134
80003924:	e5961000 	ldr	r1, [r6]
80003928:	e3480000 	movt	r0, #32768	; 0x8000
8000392c:	e1a08002 	mov	r8, r2
80003930:	eb0001f0 	bl	800040f8 <_Z7kprintfPKcz>
80003934:	e3a02001 	mov	r2, #1
80003938:	e3a01000 	mov	r1, #0
8000393c:	e1a00008 	mov	r0, r8
80003940:	eb0000fb 	bl	80003d34 <SpinlockAtomicLock>
80003944:	e2507000 	subs	r7, r0, #0
80003948:	1afffff9 	bne	80003934 <_Z11ProcessWait12ProcStatus_t+0x174>
8000394c:	e5962000 	ldr	r2, [r6]
80003950:	e308a1c0 	movw	sl, #33216	; 0x81c0
80003954:	e348a000 	movt	sl, #32768	; 0x8000
80003958:	ea00002e 	b	80003a18 <_Z11ProcessWait12ProcStatus_t+0x258>
8000395c:	e59f2214 	ldr	r2, [pc, #532]	; 80003b78 <_Z11ProcessWait12ProcStatus_t+0x3b8>
80003960:	e3050134 	movw	r0, #20788	; 0x5134
80003964:	e5961000 	ldr	r1, [r6]
80003968:	e3480000 	movt	r0, #32768	; 0x8000
8000396c:	e1a08002 	mov	r8, r2
80003970:	eb0001e0 	bl	800040f8 <_Z7kprintfPKcz>
80003974:	e3a02001 	mov	r2, #1
80003978:	e3a01000 	mov	r1, #0
8000397c:	e1a00008 	mov	r0, r8
80003980:	eb0000eb 	bl	80003d34 <SpinlockAtomicLock>
80003984:	e2507000 	subs	r7, r0, #0
80003988:	1afffff9 	bne	80003974 <_Z11ProcessWait12ProcStatus_t+0x1b4>
8000398c:	e5962000 	ldr	r2, [r6]
80003990:	e308a1e0 	movw	sl, #33248	; 0x81e0
80003994:	e348a000 	movt	sl, #32768	; 0x8000
80003998:	ea00001e 	b	80003a18 <_Z11ProcessWait12ProcStatus_t+0x258>
8000399c:	e59f21d8 	ldr	r2, [pc, #472]	; 80003b7c <_Z11ProcessWait12ProcStatus_t+0x3bc>
800039a0:	e3050134 	movw	r0, #20788	; 0x5134
800039a4:	e5961000 	ldr	r1, [r6]
800039a8:	e3480000 	movt	r0, #32768	; 0x8000
800039ac:	e1a08002 	mov	r8, r2
800039b0:	eb0001d0 	bl	800040f8 <_Z7kprintfPKcz>
800039b4:	e3a02001 	mov	r2, #1
800039b8:	e3a01000 	mov	r1, #0
800039bc:	e1a00008 	mov	r0, r8
800039c0:	eb0000db 	bl	80003d34 <SpinlockAtomicLock>
800039c4:	e2507000 	subs	r7, r0, #0
800039c8:	1afffff9 	bne	800039b4 <_Z11ProcessWait12ProcStatus_t+0x1f4>
800039cc:	e5962000 	ldr	r2, [r6]
800039d0:	e308a1d0 	movw	sl, #33232	; 0x81d0
800039d4:	e348a000 	movt	sl, #32768	; 0x8000
800039d8:	ea00000e 	b	80003a18 <_Z11ProcessWait12ProcStatus_t+0x258>
800039dc:	e59f219c 	ldr	r2, [pc, #412]	; 80003b80 <_Z11ProcessWait12ProcStatus_t+0x3c0>
800039e0:	e3050134 	movw	r0, #20788	; 0x5134
800039e4:	e5961000 	ldr	r1, [r6]
800039e8:	e3480000 	movt	r0, #32768	; 0x8000
800039ec:	e1a08002 	mov	r8, r2
800039f0:	eb0001c0 	bl	800040f8 <_Z7kprintfPKcz>
800039f4:	e3a02001 	mov	r2, #1
800039f8:	e3a01000 	mov	r1, #0
800039fc:	e1a00008 	mov	r0, r8
80003a00:	eb0000cb 	bl	80003d34 <SpinlockAtomicLock>
80003a04:	e2507000 	subs	r7, r0, #0
80003a08:	1afffff9 	bne	800039f4 <_Z11ProcessWait12ProcStatus_t+0x234>
80003a0c:	e5962000 	ldr	r2, [r6]
80003a10:	e308a1f0 	movw	sl, #33264	; 0x81f0
80003a14:	e348a000 	movt	sl, #32768	; 0x8000
80003a18:	e5943051 	ldr	r3, [r4, #81]	; 0x51
80003a1c:	e2848051 	add	r8, r4, #81	; 0x51
80003a20:	e58a200c 	str	r2, [sl, #12]
80003a24:	e28a0008 	add	r0, sl, #8
80003a28:	e5942055 	ldr	r2, [r4, #85]	; 0x55
80003a2c:	e5823000 	str	r3, [r2]
80003a30:	e5832004 	str	r2, [r3, #4]
80003a34:	e5848051 	str	r8, [r4, #81]	; 0x51
80003a38:	e5848055 	str	r8, [r4, #85]	; 0x55
80003a3c:	eb0000c4 	bl	80003d54 <SpinlockClear>
80003a40:	e58a700c 	str	r7, [sl, #12]
80003a44:	e305015c 	movw	r0, #20828	; 0x515c
80003a48:	e3480000 	movt	r0, #32768	; 0x8000
80003a4c:	e28a1008 	add	r1, sl, #8
80003a50:	e59fa12c 	ldr	sl, [pc, #300]	; 80003b84 <_Z11ProcessWait12ProcStatus_t+0x3c4>
80003a54:	eb0001a7 	bl	800040f8 <_Z7kprintfPKcz>
80003a58:	e305095c 	movw	r0, #22876	; 0x595c
80003a5c:	e3480000 	movt	r0, #32768	; 0x8000
80003a60:	e1a0b00a 	mov	fp, sl
80003a64:	eb0001a3 	bl	800040f8 <_Z7kprintfPKcz>
80003a68:	e5961000 	ldr	r1, [r6]
80003a6c:	e3050134 	movw	r0, #20788	; 0x5134
80003a70:	e3480000 	movt	r0, #32768	; 0x8000
80003a74:	e1a0200a 	mov	r2, sl
80003a78:	eb00019e 	bl	800040f8 <_Z7kprintfPKcz>
80003a7c:	e3a02001 	mov	r2, #1
80003a80:	e3a01000 	mov	r1, #0
80003a84:	e1a0000b 	mov	r0, fp
80003a88:	eb0000a9 	bl	80003d34 <SpinlockAtomicLock>
80003a8c:	e2507000 	subs	r7, r0, #0
80003a90:	1afffff9 	bne	80003a7c <_Z11ProcessWait12ProcStatus_t+0x2bc>
80003a94:	e5962000 	ldr	r2, [r6]
80003a98:	e30860b0 	movw	r6, #32944	; 0x80b0
80003a9c:	e51a3008 	ldr	r3, [sl, #-8]
80003aa0:	e3486000 	movt	r6, #32768	; 0x8000
80003aa4:	e5843051 	str	r3, [r4, #81]	; 0x51
80003aa8:	e2860008 	add	r0, r6, #8
80003aac:	e586200c 	str	r2, [r6, #12]
80003ab0:	e5846055 	str	r6, [r4, #85]	; 0x55
80003ab4:	e50a8008 	str	r8, [sl, #-8]
80003ab8:	e5838004 	str	r8, [r3, #4]
80003abc:	eb0000a4 	bl	80003d54 <SpinlockClear>
80003ac0:	e586700c 	str	r7, [r6, #12]
80003ac4:	e305015c 	movw	r0, #20828	; 0x515c
80003ac8:	e3480000 	movt	r0, #32768	; 0x8000
80003acc:	e2861008 	add	r1, r6, #8
80003ad0:	eb000188 	bl	800040f8 <_Z7kprintfPKcz>
80003ad4:	e3050988 	movw	r0, #22920	; 0x5988
80003ad8:	e3480000 	movt	r0, #32768	; 0x8000
80003adc:	eb000185 	bl	800040f8 <_Z7kprintfPKcz>
80003ae0:	e584903c 	str	r9, [r4, #60]	; 0x3c
80003ae4:	e1a00005 	mov	r0, r5
80003ae8:	eb000099 	bl	80003d54 <SpinlockClear>
80003aec:	e584704d 	str	r7, [r4, #77]	; 0x4d
80003af0:	e305015c 	movw	r0, #20828	; 0x515c
80003af4:	e3480000 	movt	r0, #32768	; 0x8000
80003af8:	e1a01005 	mov	r1, r5
80003afc:	eb00017d 	bl	800040f8 <_Z7kprintfPKcz>
80003b00:	e30509ac 	movw	r0, #22956	; 0x59ac
80003b04:	e3480000 	movt	r0, #32768	; 0x8000
80003b08:	eb00017a 	bl	800040f8 <_Z7kprintfPKcz>
80003b0c:	ebfffd3a 	bl	80002ffc <_Z17ProcessReschedulev>
80003b10:	e1a00007 	mov	r0, r7
80003b14:	e8bd8ff8 	pop	{r3, r4, r5, r6, r7, r8, r9, sl, fp, pc}
80003b18:	e1a00005 	mov	r0, r5
80003b1c:	e3e070fe 	mvn	r7, #254	; 0xfe
80003b20:	eb00008b 	bl	80003d54 <SpinlockClear>
80003b24:	e3a03000 	mov	r3, #0
80003b28:	e305015c 	movw	r0, #20828	; 0x515c
80003b2c:	e584304d 	str	r3, [r4, #77]	; 0x4d
80003b30:	e1a01005 	mov	r1, r5
80003b34:	e3480000 	movt	r0, #32768	; 0x8000
80003b38:	eb00016e 	bl	800040f8 <_Z7kprintfPKcz>
80003b3c:	e1a00007 	mov	r0, r7
80003b40:	e8bd8ff8 	pop	{r3, r4, r5, r6, r7, r8, r9, sl, fp, pc}
80003b44:	e3e070fe 	mvn	r7, #254	; 0xfe
80003b48:	eafffff0 	b	80003b10 <_Z11ProcessWait12ProcStatus_t+0x350>
80003b4c:	e1a00005 	mov	r0, r5
80003b50:	e3e070fe 	mvn	r7, #254	; 0xfe
80003b54:	eb00007e 	bl	80003d54 <SpinlockClear>
80003b58:	e584804d 	str	r8, [r4, #77]	; 0x4d
80003b5c:	e305015c 	movw	r0, #20828	; 0x515c
80003b60:	e3480000 	movt	r0, #32768	; 0x8000
80003b64:	e1a01005 	mov	r1, r5
80003b68:	eb000162 	bl	800040f8 <_Z7kprintfPKcz>
80003b6c:	eaffffe7 	b	80003b10 <_Z11ProcessWait12ProcStatus_t+0x350>
80003b70:	80008208 	andhi	r8, r0, r8, lsl #4
80003b74:	800081c8 	andhi	r8, r0, r8, asr #3
80003b78:	800081e8 	andhi	r8, r0, r8, ror #3
80003b7c:	800081d8 	ldrdhi	r8, [r0], -r8	; <UNPREDICTABLE>
80003b80:	800081f8 	strdhi	r8, [r0], -r8	; <UNPREDICTABLE>
80003b84:	800080b8 	strhhi	r8, [r0], -r8	; <UNPREDICTABLE>

80003b88 <ResetHandler>:
80003b88:	e92d4010 	push	{r4, lr}
80003b8c:	e1a04000 	mov	r4, r0
80003b90:	e30509d4 	movw	r0, #22996	; 0x59d4
80003b94:	e3480000 	movt	r0, #32768	; 0x8000
80003b98:	eb000156 	bl	800040f8 <_Z7kprintfPKcz>
80003b9c:	e1a00004 	mov	r0, r4
80003ba0:	ebfff698 	bl	80001608 <_Z12IsrDumpStateP9isrRegs_t>
80003ba4:	eb0001de 	bl	80004324 <Halt>

80003ba8 <ResetTarget>:
80003ba8:	f10e01d3 	cpsid	aif,#19
80003bac:	e8cd4000 	stmia	sp, {lr}^
80003bb0:	e8cd2000 	stmia	sp, {sp}^
80003bb4:	e52dc004 	push	{ip}		; (str ip, [sp, #-4]!)
80003bb8:	e52db004 	push	{fp}		; (str fp, [sp, #-4]!)
80003bbc:	e52da004 	push	{sl}		; (str sl, [sp, #-4]!)
80003bc0:	e52d9004 	push	{r9}		; (str r9, [sp, #-4]!)
80003bc4:	e52d8004 	push	{r8}		; (str r8, [sp, #-4]!)
80003bc8:	e52d7004 	push	{r7}		; (str r7, [sp, #-4]!)
80003bcc:	e52d6004 	push	{r6}		; (str r6, [sp, #-4]!)
80003bd0:	e52d5004 	push	{r5}		; (str r5, [sp, #-4]!)
80003bd4:	e52d4004 	push	{r4}		; (str r4, [sp, #-4]!)
80003bd8:	e52d3004 	push	{r3}		; (str r3, [sp, #-4]!)
80003bdc:	e52d2004 	push	{r2}		; (str r2, [sp, #-4]!)
80003be0:	e52d1004 	push	{r1}		; (str r1, [sp, #-4]!)
80003be4:	e52d0004 	push	{r0}		; (str r0, [sp, #-4]!)
80003be8:	e14f0000 	mrs	r0, SPSR
80003bec:	e52d0004 	push	{r0}		; (str r0, [sp, #-4]!)
80003bf0:	e1a0000d 	mov	r0, sp
80003bf4:	ebffffe3 	bl	80003b88 <ResetHandler>

80003bf8 <RestoreInterrupts>:
80003bf8:	e52d1004 	push	{r1}		; (str r1, [sp, #-4]!)
80003bfc:	e10f1000 	mrs	r1, CPSR
80003c00:	e3c11d07 	bic	r1, r1, #448	; 0x1c0
80003c04:	e1811000 	orr	r1, r1, r0
80003c08:	e129f001 	msr	CPSR_fc, r1
80003c0c:	e49d1004 	pop	{r1}		; (ldr r1, [sp], #4)
80003c10:	e1a0f00e 	mov	pc, lr

80003c14 <_Z10SerialInitv>:
80003c14:	e92d4070 	push	{r4, r5, r6, lr}
80003c18:	e3a06000 	mov	r6, #0
80003c1c:	e3a04a01 	mov	r4, #4096	; 0x1000
80003c20:	e1a05006 	mov	r5, r6
80003c24:	e34f4220 	movt	r4, #61984	; 0xf220
80003c28:	e3a00096 	mov	r0, #150	; 0x96
80003c2c:	e34f6220 	movt	r6, #61984	; 0xf220
80003c30:	e5845030 	str	r5, [r4, #48]	; 0x30
80003c34:	e5865094 	str	r5, [r6, #148]	; 0x94
80003c38:	ebfff0f0 	bl	80000000 <_Z8BusyWaitj>
80003c3c:	e3a03903 	mov	r3, #49152	; 0xc000
80003c40:	e3a00096 	mov	r0, #150	; 0x96
80003c44:	e5863098 	str	r3, [r6, #152]	; 0x98
80003c48:	ebfff0ec 	bl	80000000 <_Z8BusyWaitj>
80003c4c:	e5865098 	str	r5, [r6, #152]	; 0x98
80003c50:	e3e02000 	mvn	r2, #0
80003c54:	e5842044 	str	r2, [r4, #68]	; 0x44
80003c58:	e3a01010 	mov	r1, #16
80003c5c:	e5845038 	str	r5, [r4, #56]	; 0x38
80003c60:	e3a02004 	mov	r2, #4
80003c64:	e584102c 	str	r1, [r4, #44]	; 0x2c
80003c68:	e3053b2c 	movw	r3, #23340	; 0x5b2c
80003c6c:	e5842024 	str	r2, [r4, #36]	; 0x24
80003c70:	e3a01060 	mov	r1, #96	; 0x60
80003c74:	e340328f 	movt	r3, #655	; 0x28f
80003c78:	e3a02001 	mov	r2, #1
80003c7c:	e5843028 	str	r3, [r4, #40]	; 0x28
80003c80:	e584102c 	str	r1, [r4, #44]	; 0x2c
80003c84:	e5842030 	str	r2, [r4, #48]	; 0x30
80003c88:	e8bd8070 	pop	{r4, r5, r6, pc}

80003c8c <_Z13SerialPutCharc>:
80003c8c:	e3a02a01 	mov	r2, #4096	; 0x1000
80003c90:	e34f2220 	movt	r2, #61984	; 0xf220
80003c94:	e5923010 	ldr	r3, [r2, #16]
80003c98:	e3130020 	tst	r3, #32
80003c9c:	1afffffc 	bne	80003c94 <_Z13SerialPutCharc+0x8>
80003ca0:	e5820000 	str	r0, [r2]
80003ca4:	e12fff1e 	bx	lr

80003ca8 <_Z12SerialPutHexj>:
80003ca8:	e305c9e0 	movw	ip, #23008	; 0x59e0
80003cac:	e348c000 	movt	ip, #32768	; 0x8000
80003cb0:	e92d4030 	push	{r4, r5, lr}
80003cb4:	e1a05000 	mov	r5, r0
80003cb8:	e24dd01c 	sub	sp, sp, #28
80003cbc:	e3a0401c 	mov	r4, #28
80003cc0:	e8bc000f 	ldm	ip!, {r0, r1, r2, r3}
80003cc4:	e28de004 	add	lr, sp, #4
80003cc8:	e59cc000 	ldr	ip, [ip]
80003ccc:	e8ae000f 	stmia	lr!, {r0, r1, r2, r3}
80003cd0:	e30509dc 	movw	r0, #23004	; 0x59dc
80003cd4:	e3480000 	movt	r0, #32768	; 0x8000
80003cd8:	e5cec000 	strb	ip, [lr]
80003cdc:	eb00000a 	bl	80003d0c <_Z10SerialPutSPKc>
80003ce0:	e1a03435 	lsr	r3, r5, r4
80003ce4:	e28d2018 	add	r2, sp, #24
80003ce8:	e203300f 	and	r3, r3, #15
80003cec:	e2444004 	sub	r4, r4, #4
80003cf0:	e0823003 	add	r3, r2, r3
80003cf4:	e5530014 	ldrb	r0, [r3, #-20]	; 0xffffffec
80003cf8:	ebffffe3 	bl	80003c8c <_Z13SerialPutCharc>
80003cfc:	e3740004 	cmn	r4, #4
80003d00:	1afffff6 	bne	80003ce0 <_Z12SerialPutHexj+0x38>
80003d04:	e28dd01c 	add	sp, sp, #28
80003d08:	e8bd8030 	pop	{r4, r5, pc}

80003d0c <_Z10SerialPutSPKc>:
80003d0c:	e92d4010 	push	{r4, lr}
80003d10:	e1a04000 	mov	r4, r0
80003d14:	e5d00000 	ldrb	r0, [r0]
80003d18:	e3500000 	cmp	r0, #0
80003d1c:	08bd8010 	popeq	{r4, pc}
80003d20:	ebffffd9 	bl	80003c8c <_Z13SerialPutCharc>
80003d24:	e5f40001 	ldrb	r0, [r4, #1]!
80003d28:	e3500000 	cmp	r0, #0
80003d2c:	1afffffb 	bne	80003d20 <_Z10SerialPutSPKc+0x14>
80003d30:	e8bd8010 	pop	{r4, pc}

80003d34 <SpinlockAtomicLock>:
80003d34:	e92d4808 	push	{r3, fp, lr}
80003d38:	e1a0b00d 	mov	fp, sp

80003d3c <loop>:
80003d3c:	e1803f92 	strex	r3, r2, [r0]
80003d40:	e1530001 	cmp	r3, r1
80003d44:	1afffffc 	bne	80003d3c <loop>
80003d48:	e1a0d00b 	mov	sp, fp
80003d4c:	e8bd4808 	pop	{r3, fp, lr}
80003d50:	e1a0f00e 	mov	pc, lr

80003d54 <SpinlockClear>:
80003d54:	e92d4806 	push	{r1, r2, fp, lr}
80003d58:	e1a0b00d 	mov	fp, sp
80003d5c:	e3a01000 	mov	r1, #0
80003d60:	e1802f91 	strex	r2, r1, [r0]
80003d64:	e1a0d00b 	mov	sp, fp
80003d68:	e8bd4806 	pop	{r1, r2, fp, lr}
80003d6c:	e1a0f00e 	mov	pc, lr

80003d70 <SuperHandler>:
80003d70:	e92d4010 	push	{r4, lr}
80003d74:	e1a04000 	mov	r4, r0
80003d78:	e30509f4 	movw	r0, #23028	; 0x59f4
80003d7c:	e3480000 	movt	r0, #32768	; 0x8000
80003d80:	eb0000dc 	bl	800040f8 <_Z7kprintfPKcz>
80003d84:	e1a00004 	mov	r0, r4
80003d88:	e8bd4010 	pop	{r4, lr}
80003d8c:	eafff61d 	b	80001608 <_Z12IsrDumpStateP9isrRegs_t>

80003d90 <SuperTarget>:
80003d90:	f96d0513 	srsdb	sp!, #19
80003d94:	f10e01d3 	cpsid	aif,#19
80003d98:	e92d1fff 	push	{r0, r1, r2, r3, r4, r5, r6, r7, r8, r9, sl, fp, ip}
80003d9c:	e3a00013 	mov	r0, #19
80003da0:	e52d0004 	push	{r0}		; (str r0, [sp, #-4]!)
80003da4:	e52dd004 	push	{sp}		; (str sp, [sp, #-4]!)
80003da8:	e52de004 	push	{lr}		; (str lr, [sp, #-4]!)
80003dac:	e24dd008 	sub	sp, sp, #8
80003db0:	e8cd6000 	stmia	sp, {sp, lr}^
80003db4:	e1a0000d 	mov	r0, sp
80003db8:	ebffffec 	bl	80003d70 <SuperHandler>
80003dbc:	e8dd6000 	ldm	sp, {sp, lr}^
80003dc0:	e28dd008 	add	sp, sp, #8
80003dc4:	e49de004 	pop	{lr}		; (ldr lr, [sp], #4)
80003dc8:	e28dd004 	add	sp, sp, #4
80003dcc:	e49d0004 	pop	{r0}		; (ldr r0, [sp], #4)
80003dd0:	e8bd1fff 	pop	{r0, r1, r2, r3, r4, r5, r6, r7, r8, r9, sl, fp, ip}
80003dd4:	f8bd0a00 	rfeia	sp!

80003dd8 <SysTimerCount>:
80003dd8:	e59f0004 	ldr	r0, [pc, #4]	; 80003de4 <SysTimerCount+0xc>
80003ddc:	e1c000d0 	ldrd	r0, [r0]
80003de0:	e1a0f00e 	mov	pc, lr
80003de4:	3f003004 	svccc	0x00003004

80003de8 <_Z13TimerCallBackP9isrRegs_t>:
80003de8:	e3050a0c 	movw	r0, #23052	; 0x5a0c
80003dec:	e92d4010 	push	{r4, lr}
80003df0:	e3480000 	movt	r0, #32768	; 0x8000
80003df4:	eb0000bf 	bl	800040f8 <_Z7kprintfPKcz>
80003df8:	e30f3400 	movw	r3, #62464	; 0xf400
80003dfc:	e3483001 	movt	r3, #32769	; 0x8001
80003e00:	e5d30000 	ldrb	r0, [r3]
80003e04:	e3500000 	cmp	r0, #0
80003e08:	1a000005 	bne	80003e24 <_Z13TimerCallBackP9isrRegs_t+0x3c>
80003e0c:	e30f3c10 	movw	r3, #64528	; 0xfc10
80003e10:	e3483003 	movt	r3, #32771	; 0x8003
80003e14:	e8bd4010 	pop	{r4, lr}
80003e18:	e5933000 	ldr	r3, [r3]
80003e1c:	e5933004 	ldr	r3, [r3, #4]
80003e20:	e12fff13 	bx	r3
80003e24:	e30f2c0c 	movw	r2, #64524	; 0xfc0c
80003e28:	e30f3c0c 	movw	r3, #64524	; 0xfc0c
80003e2c:	e3482003 	movt	r2, #32771	; 0x8003
80003e30:	e30f1c10 	movw	r1, #64528	; 0xfc10
80003e34:	e3483001 	movt	r3, #32769	; 0x8001
80003e38:	e5920000 	ldr	r0, [r2]
80003e3c:	e592c000 	ldr	ip, [r2]
80003e40:	e7930100 	ldr	r0, [r3, r0, lsl #2]
80003e44:	e3481003 	movt	r1, #32771	; 0x8003
80003e48:	e5902038 	ldr	r2, [r0, #56]	; 0x38
80003e4c:	e5911000 	ldr	r1, [r1]
80003e50:	e2822001 	add	r2, r2, #1
80003e54:	e5802038 	str	r2, [r0, #56]	; 0x38
80003e58:	e3a00000 	mov	r0, #0
80003e5c:	e793210c 	ldr	r2, [r3, ip, lsl #2]
80003e60:	e5923044 	ldr	r3, [r2, #68]	; 0x44
80003e64:	e2433001 	sub	r3, r3, #1
80003e68:	e5823044 	str	r3, [r2, #68]	; 0x44
80003e6c:	e3530000 	cmp	r3, #0
80003e70:	e5913004 	ldr	r3, [r1, #4]
80003e74:	da000001 	ble	80003e80 <_Z13TimerCallBackP9isrRegs_t+0x98>
80003e78:	e8bd4010 	pop	{r4, lr}
80003e7c:	e12fff13 	bx	r3
80003e80:	e12fff33 	blx	r3
80003e84:	e8bd4010 	pop	{r4, lr}
80003e88:	eafffc5b 	b	80002ffc <_Z17ProcessReschedulev>

80003e8c <_Z8TimerEoij>:
80003e8c:	e3050a10 	movw	r0, #23056	; 0x5a10
80003e90:	e92d4010 	push	{r4, lr}
80003e94:	e3480000 	movt	r0, #32768	; 0x8000
80003e98:	eb000096 	bl	800040f8 <_Z7kprintfPKcz>
80003e9c:	eb000120 	bl	80004324 <Halt>

80003ea0 <_Z9TimerInitj>:
80003ea0:	e3a01a0f 	mov	r1, #61440	; 0xf000
80003ea4:	e1a02000 	mov	r2, r0
80003ea8:	e3401249 	movt	r1, #585	; 0x249
80003eac:	e3050a38 	movw	r0, #23096	; 0x5a38
80003eb0:	e92d4010 	push	{r4, lr}
80003eb4:	e3a044f3 	mov	r4, #-218103808	; 0xf3000000
80003eb8:	e731f211 	udiv	r1, r1, r2
80003ebc:	e3480000 	movt	r0, #32768	; 0x8000
80003ec0:	eb00008c 	bl	800040f8 <_Z7kprintfPKcz>
80003ec4:	e3031de8 	movw	r1, #15848	; 0x3de8
80003ec8:	e3a00035 	mov	r0, #53	; 0x35
80003ecc:	e3481000 	movt	r1, #32768	; 0x8000
80003ed0:	ebfff748 	bl	80001bf8 <_Z11IsrRegisterhPFvP9isrRegs_tE>
80003ed4:	e3050a6c 	movw	r0, #23148	; 0x5a6c
80003ed8:	e3480000 	movt	r0, #32768	; 0x8000
80003edc:	eb000085 	bl	800040f8 <_Z7kprintfPKcz>
80003ee0:	e3a02000 	mov	r2, #0
80003ee4:	e3a03102 	mov	r3, #-2147483648	; 0x80000000
80003ee8:	e5842000 	str	r2, [r4]
80003eec:	e3050a84 	movw	r0, #23172	; 0x5a84
80003ef0:	e5843008 	str	r3, [r4, #8]
80003ef4:	e3480000 	movt	r0, #32768	; 0x8000
80003ef8:	e5941040 	ldr	r1, [r4, #64]	; 0x40
80003efc:	eb00007d 	bl	800040f8 <_Z7kprintfPKcz>
80003f00:	e3a03020 	mov	r3, #32
80003f04:	e3050aa4 	movw	r0, #23204	; 0x5aa4
80003f08:	e5843040 	str	r3, [r4, #64]	; 0x40
80003f0c:	e3480000 	movt	r0, #32768	; 0x8000
80003f10:	e5941040 	ldr	r1, [r4, #64]	; 0x40
80003f14:	eb000077 	bl	800040f8 <_Z7kprintfPKcz>
80003f18:	ebfff06c 	bl	800000d0 <EnableInterrupts>
80003f1c:	e3050ac4 	movw	r0, #23236	; 0x5ac4
80003f20:	e3480000 	movt	r0, #32768	; 0x8000
80003f24:	e8bd4010 	pop	{r4, lr}
80003f28:	ea000072 	b	800040f8 <_Z7kprintfPKcz>

80003f2c <UndefinedHandler>:
80003f2c:	e92d4010 	push	{r4, lr}
80003f30:	e1a04000 	mov	r4, r0
80003f34:	e3050adc 	movw	r0, #23260	; 0x5adc
80003f38:	e3480000 	movt	r0, #32768	; 0x8000
80003f3c:	eb00006d 	bl	800040f8 <_Z7kprintfPKcz>
80003f40:	e1a00004 	mov	r0, r4
80003f44:	ebfff5af 	bl	80001608 <_Z12IsrDumpStateP9isrRegs_t>
80003f48:	eb0000f5 	bl	80004324 <Halt>

80003f4c <UndefinedTarget>:
80003f4c:	f96d0513 	srsdb	sp!, #19
80003f50:	f10e01d3 	cpsid	aif,#19
80003f54:	e92d1fff 	push	{r0, r1, r2, r3, r4, r5, r6, r7, r8, r9, sl, fp, ip}
80003f58:	e3a0001b 	mov	r0, #27
80003f5c:	e52d0004 	push	{r0}		; (str r0, [sp, #-4]!)
80003f60:	e52dd004 	push	{sp}		; (str sp, [sp, #-4]!)
80003f64:	e52de004 	push	{lr}		; (str lr, [sp, #-4]!)
80003f68:	e24dd008 	sub	sp, sp, #8
80003f6c:	e8cd6000 	stmia	sp, {sp, lr}^
80003f70:	e1a0000d 	mov	r0, sp
80003f74:	ebffffec 	bl	80003f2c <UndefinedHandler>
80003f78:	e8dd6000 	ldm	sp, {sp, lr}^
80003f7c:	e28dd008 	add	sp, sp, #8
80003f80:	e49de004 	pop	{lr}		; (ldr lr, [sp], #4)
80003f84:	e28dd004 	add	sp, sp, #4
80003f88:	e49d0004 	pop	{r0}		; (ldr r0, [sp], #4)
80003f8c:	e8bd1fff 	pop	{r0, r1, r2, r3, r4, r5, r6, r7, r8, r9, sl, fp, ip}
80003f90:	f8bd0a00 	rfeia	sp!

80003f94 <kInit>:
80003f94:	e92d4010 	push	{r4, lr}
80003f98:	ebfff54e 	bl	800014d8 <_Z8IdtBuildv>
80003f9c:	e3050af4 	movw	r0, #23284	; 0x5af4
80003fa0:	e3055b48 	movw	r5, #23368	; 0x5b48
80003fa4:	e3480000 	movt	r0, #32768	; 0x8000
80003fa8:	e3a04101 	mov	r4, #1073741824	; 0x40000000
80003fac:	e3485000 	movt	r5, #32768	; 0x8000
80003fb0:	eb000050 	bl	800040f8 <_Z7kprintfPKcz>
80003fb4:	e3050b28 	movw	r0, #23336	; 0x5b28
80003fb8:	e3480000 	movt	r0, #32768	; 0x8000
80003fbc:	eb00004d 	bl	800040f8 <_Z7kprintfPKcz>
80003fc0:	e3050b40 	movw	r0, #23360	; 0x5b40
80003fc4:	e3480000 	movt	r0, #32768	; 0x8000
80003fc8:	ebfff0c7 	bl	800002ec <_Z19FrameBufferParseRGBPKc>
80003fcc:	e3083218 	movw	r3, #33304	; 0x8218
80003fd0:	e3001321 	movw	r1, #801	; 0x321
80003fd4:	e3483000 	movt	r3, #32768	; 0x8000
80003fd8:	e3e02000 	mvn	r2, #0
80003fdc:	e5933000 	ldr	r3, [r3]
80003fe0:	e18300b1 	strh	r0, [r3, r1]
80003fe4:	e5c32323 	strb	r2, [r3, #803]	; 0x323
80003fe8:	e5c32324 	strb	r2, [r3, #804]	; 0x324
80003fec:	ebfff05a 	bl	8000015c <_Z16FrameBufferClearv>
80003ff0:	e3050af4 	movw	r0, #23284	; 0x5af4
80003ff4:	e3480000 	movt	r0, #32768	; 0x8000
80003ff8:	ebfff13f 	bl	800004fc <_Z15FrameBufferPutSPKc>
80003ffc:	e3050b28 	movw	r0, #23336	; 0x5b28
80004000:	e3480000 	movt	r0, #32768	; 0x8000
80004004:	ebfff13c 	bl	800004fc <_Z15FrameBufferPutSPKc>
80004008:	ebfffa3a 	bl	800028f8 <_Z11ProcessInitv>
8000400c:	e3a000fa 	mov	r0, #250	; 0xfa
80004010:	ebffffa2 	bl	80003ea0 <_Z9TimerInitj>
80004014:	ebfff02d 	bl	800000d0 <EnableInterrupts>
80004018:	e30f3400 	movw	r3, #62464	; 0xf400
8000401c:	e3a02001 	mov	r2, #1
80004020:	e3483001 	movt	r3, #32769	; 0x8001
80004024:	e5c32000 	strb	r2, [r3]
80004028:	e5943034 	ldr	r3, [r4, #52]	; 0x34
8000402c:	e3530000 	cmp	r3, #0
80004030:	aafffffc 	bge	80004028 <kInit+0x94>
80004034:	e1a00005 	mov	r0, r5
80004038:	eb00002e 	bl	800040f8 <_Z7kprintfPKcz>
8000403c:	eafffff9 	b	80004028 <kInit+0x94>

80004040 <_Z8idleMainv>:
80004040:	e320f003 	wfi
80004044:	eafffffd 	b	80004040 <_Z8idleMainv>

80004048 <kMemMove>:
80004048:	e52d3004 	push	{r3}		; (str r3, [sp, #-4]!)

8000404c <.loop>:
8000404c:	e5d13000 	ldrb	r3, [r1]
80004050:	e2811001 	add	r1, r1, #1
80004054:	e3520000 	cmp	r2, #0
80004058:	0a000003 	beq	8000406c <.out>
8000405c:	e5c03000 	strb	r3, [r0]
80004060:	e2800001 	add	r0, r0, #1
80004064:	e2422001 	sub	r2, r2, #1
80004068:	eafffff7 	b	8000404c <.loop>

8000406c <.out>:
8000406c:	e49d3004 	pop	{r3}		; (ldr r3, [sp], #4)
80004070:	e1a0f00e 	mov	pc, lr

80004074 <kMemSetB>:
80004074:	e3520000 	cmp	r2, #0
80004078:	01a0f00e 	moveq	pc, lr
8000407c:	e5c01000 	strb	r1, [r0]
80004080:	e2800001 	add	r0, r0, #1
80004084:	e2422001 	sub	r2, r2, #1
80004088:	eafffff9 	b	80004074 <kMemSetB>

8000408c <kMemSetW>:
8000408c:	e3520000 	cmp	r2, #0
80004090:	01a0f00e 	moveq	pc, lr
80004094:	e1c010b0 	strh	r1, [r0]
80004098:	e2800002 	add	r0, r0, #2
8000409c:	e2422001 	sub	r2, r2, #1
800040a0:	eafffff9 	b	8000408c <kMemSetW>

800040a4 <kStrCpy>:
800040a4:	e52d3004 	push	{r3}		; (str r3, [sp, #-4]!)

800040a8 <.loop>:
800040a8:	e5d13000 	ldrb	r3, [r1]
800040ac:	e2811001 	add	r1, r1, #1
800040b0:	e3530000 	cmp	r3, #0
800040b4:	0a000002 	beq	800040c4 <.out>
800040b8:	e5c03000 	strb	r3, [r0]
800040bc:	e2800001 	add	r0, r0, #1
800040c0:	eafffff8 	b	800040a8 <.loop>

800040c4 <.out>:
800040c4:	e49d3004 	pop	{r3}		; (ldr r3, [sp], #4)
800040c8:	e1a0f00e 	mov	pc, lr

800040cc <kStrLen>:
800040cc:	e92d000a 	push	{r1, r3}
800040d0:	e1a03000 	mov	r3, r0
800040d4:	e0200000 	eor	r0, r0, r0

800040d8 <.loop>:
800040d8:	e5d31000 	ldrb	r1, [r3]
800040dc:	e2833001 	add	r3, r3, #1
800040e0:	e3510000 	cmp	r1, #0
800040e4:	0a000001 	beq	800040f0 <.out>
800040e8:	e2800001 	add	r0, r0, #1
800040ec:	eafffff9 	b	800040d8 <.loop>

800040f0 <.out>:
800040f0:	e8bd000a 	pop	{r1, r3}
800040f4:	e1a0f00e 	mov	pc, lr

800040f8 <_Z7kprintfPKcz>:
800040f8:	e92d000f 	push	{r0, r1, r2, r3}
800040fc:	e92d4ff0 	push	{r4, r5, r6, r7, r8, r9, sl, fp, lr}
80004100:	e24dd014 	sub	sp, sp, #20
80004104:	e59d3038 	ldr	r3, [sp, #56]	; 0x38
80004108:	e5d30000 	ldrb	r0, [r3]
8000410c:	e3500000 	cmp	r0, #0
80004110:	0a000064 	beq	800042a8 <_Z7kprintfPKcz+0x1b0>
80004114:	e3052b7c 	movw	r2, #23420	; 0x5b7c
80004118:	e3056b4c 	movw	r6, #23372	; 0x5b4c
8000411c:	e3482000 	movt	r2, #32768	; 0x8000
80004120:	e30599dc 	movw	r9, #23004	; 0x59dc
80004124:	e3486000 	movt	r6, #32768	; 0x8000
80004128:	e28db03c 	add	fp, sp, #60	; 0x3c
8000412c:	e3489000 	movt	r9, #32768	; 0x8000
80004130:	e3a04000 	mov	r4, #0
80004134:	e58d200c 	str	r2, [sp, #12]
80004138:	ea00001e 	b	800041b8 <_Z7kprintfPKcz+0xc0>
8000413c:	e5d32001 	ldrb	r2, [r3, #1]
80004140:	e2835001 	add	r5, r3, #1
80004144:	e58d5038 	str	r5, [sp, #56]	; 0x38
80004148:	e3520000 	cmp	r2, #0
8000414c:	0a000056 	beq	800042ac <_Z7kprintfPKcz+0x1b4>
80004150:	e3520030 	cmp	r2, #48	; 0x30
80004154:	02835002 	addeq	r5, r3, #2
80004158:	03a08001 	moveq	r8, #1
8000415c:	05d32002 	ldrbeq	r2, [r3, #2]
80004160:	13a08000 	movne	r8, #0
80004164:	058d5038 	streq	r5, [sp, #56]	; 0x38
80004168:	03a03002 	moveq	r3, #2
8000416c:	13a03001 	movne	r3, #1
80004170:	e3520058 	cmp	r2, #88	; 0x58
80004174:	0a000028 	beq	8000421c <_Z7kprintfPKcz+0x124>
80004178:	9a000014 	bls	800041d0 <_Z7kprintfPKcz+0xd8>
8000417c:	e3520073 	cmp	r2, #115	; 0x73
80004180:	0a00004e 	beq	800042c0 <_Z7kprintfPKcz+0x1c8>
80004184:	e3520078 	cmp	r2, #120	; 0x78
80004188:	0a000025 	beq	80004224 <_Z7kprintfPKcz+0x12c>
8000418c:	e3520070 	cmp	r2, #112	; 0x70
80004190:	0a000013 	beq	800041e4 <_Z7kprintfPKcz+0xec>
80004194:	e0455003 	sub	r5, r5, r3
80004198:	e3a00025 	mov	r0, #37	; 0x25
8000419c:	e2844001 	add	r4, r4, #1
800041a0:	ebfffeb9 	bl	80003c8c <_Z13SerialPutCharc>
800041a4:	e5d50001 	ldrb	r0, [r5, #1]
800041a8:	e2853001 	add	r3, r5, #1
800041ac:	e58d3038 	str	r3, [sp, #56]	; 0x38
800041b0:	e3500000 	cmp	r0, #0
800041b4:	0a00003c 	beq	800042ac <_Z7kprintfPKcz+0x1b4>
800041b8:	e3500025 	cmp	r0, #37	; 0x25
800041bc:	0affffde 	beq	8000413c <_Z7kprintfPKcz+0x44>
800041c0:	e2844001 	add	r4, r4, #1
800041c4:	ebfffeb0 	bl	80003c8c <_Z13SerialPutCharc>
800041c8:	e59d5038 	ldr	r5, [sp, #56]	; 0x38
800041cc:	eafffff4 	b	800041a4 <_Z7kprintfPKcz+0xac>
800041d0:	e3520025 	cmp	r2, #37	; 0x25
800041d4:	0affffef 	beq	80004198 <_Z7kprintfPKcz+0xa0>
800041d8:	e3520050 	cmp	r2, #80	; 0x50
800041dc:	059d600c 	ldreq	r6, [sp, #12]
800041e0:	1affffeb 	bne	80004194 <_Z7kprintfPKcz+0x9c>
800041e4:	e59ba000 	ldr	sl, [fp]
800041e8:	e1a00009 	mov	r0, r9
800041ec:	e28bb004 	add	fp, fp, #4
800041f0:	e3a0701c 	mov	r7, #28
800041f4:	ebfffec4 	bl	80003d0c <_Z10SerialPutSPKc>
800041f8:	e1a0373a 	lsr	r3, sl, r7
800041fc:	e2477004 	sub	r7, r7, #4
80004200:	e203300f 	and	r3, r3, #15
80004204:	e7d60003 	ldrb	r0, [r6, r3]
80004208:	ebfffe9f 	bl	80003c8c <_Z13SerialPutCharc>
8000420c:	e3770004 	cmn	r7, #4
80004210:	1afffff8 	bne	800041f8 <_Z7kprintfPKcz+0x100>
80004214:	e284400a 	add	r4, r4, #10
80004218:	eaffffe1 	b	800041a4 <_Z7kprintfPKcz+0xac>
8000421c:	e59d600c 	ldr	r6, [sp, #12]
80004220:	e3888040 	orr	r8, r8, #64	; 0x40
80004224:	e59b7000 	ldr	r7, [fp]
80004228:	e28b3004 	add	r3, fp, #4
8000422c:	e58d3008 	str	r3, [sp, #8]
80004230:	e3a0b001 	mov	fp, #1
80004234:	e008300b 	and	r3, r8, fp
80004238:	e1a00009 	mov	r0, r9
8000423c:	e58d3004 	str	r3, [sp, #4]
80004240:	e2844002 	add	r4, r4, #2
80004244:	e3a0a01c 	mov	sl, #28
80004248:	ebfffeaf 	bl	80003d0c <_Z10SerialPutSPKc>
8000424c:	ea000004 	b	80004264 <_Z7kprintfPKcz+0x16c>
80004250:	e7d60003 	ldrb	r0, [r6, r3]
80004254:	e2844001 	add	r4, r4, #1
80004258:	ebfffe8b 	bl	80003c8c <_Z13SerialPutCharc>
8000425c:	e37a0004 	cmn	sl, #4
80004260:	0a00000a 	beq	80004290 <_Z7kprintfPKcz+0x198>
80004264:	e1a03a37 	lsr	r3, r7, sl
80004268:	e24aa004 	sub	sl, sl, #4
8000426c:	e213300f 	ands	r3, r3, #15
80004270:	13a0b000 	movne	fp, #0
80004274:	e35b0000 	cmp	fp, #0
80004278:	0afffff4 	beq	80004250 <_Z7kprintfPKcz+0x158>
8000427c:	e59d2004 	ldr	r2, [sp, #4]
80004280:	e3520000 	cmp	r2, #0
80004284:	1afffff1 	bne	80004250 <_Z7kprintfPKcz+0x158>
80004288:	e37a0004 	cmn	sl, #4
8000428c:	1afffff4 	bne	80004264 <_Z7kprintfPKcz+0x16c>
80004290:	e35b0000 	cmp	fp, #0
80004294:	0a000001 	beq	800042a0 <_Z7kprintfPKcz+0x1a8>
80004298:	e3180001 	tst	r8, #1
8000429c:	0a000014 	beq	800042f4 <_Z7kprintfPKcz+0x1fc>
800042a0:	e59db008 	ldr	fp, [sp, #8]
800042a4:	eaffffbe 	b	800041a4 <_Z7kprintfPKcz+0xac>
800042a8:	e1a04000 	mov	r4, r0
800042ac:	e1a00004 	mov	r0, r4
800042b0:	e28dd014 	add	sp, sp, #20
800042b4:	e8bd4ff0 	pop	{r4, r5, r6, r7, r8, r9, sl, fp, lr}
800042b8:	e28dd010 	add	sp, sp, #16
800042bc:	e12fff1e 	bx	lr
800042c0:	e59b7000 	ldr	r7, [fp]
800042c4:	e28bb004 	add	fp, fp, #4
800042c8:	e3570000 	cmp	r7, #0
800042cc:	0a00000d 	beq	80004308 <_Z7kprintfPKcz+0x210>
800042d0:	e5d70000 	ldrb	r0, [r7]
800042d4:	e3500000 	cmp	r0, #0
800042d8:	0a000003 	beq	800042ec <_Z7kprintfPKcz+0x1f4>
800042dc:	ebfffe6a 	bl	80003c8c <_Z13SerialPutCharc>
800042e0:	e5f70001 	ldrb	r0, [r7, #1]!
800042e4:	e3500000 	cmp	r0, #0
800042e8:	1afffffb 	bne	800042dc <_Z7kprintfPKcz+0x1e4>
800042ec:	e2844001 	add	r4, r4, #1
800042f0:	eaffffab 	b	800041a4 <_Z7kprintfPKcz+0xac>
800042f4:	e59db008 	ldr	fp, [sp, #8]
800042f8:	e3a00030 	mov	r0, #48	; 0x30
800042fc:	e2844001 	add	r4, r4, #1
80004300:	ebfffe61 	bl	80003c8c <_Z13SerialPutCharc>
80004304:	eaffffa6 	b	800041a4 <_Z7kprintfPKcz+0xac>
80004308:	e3057b74 	movw	r7, #23412	; 0x5b74
8000430c:	e3a0003c 	mov	r0, #60	; 0x3c
80004310:	e3487000 	movt	r7, #32768	; 0x8000
80004314:	eafffff0 	b	800042dc <_Z7kprintfPKcz+0x1e4>

80004318 <_start>:
80004318:	f1020013 	cps	#19
8000431c:	e59fd008 	ldr	sp, [pc, #8]	; 8000432c <Halt+0x8>
80004320:	ebffff1b 	bl	80003f94 <kInit>

80004324 <Halt>:
80004324:	e320f003 	wfi
80004328:	eafffffd 	b	80004324 <Halt>
8000432c:	80008000 	andhi	r8, r0, r0

Disassembly of section .rodata:

80005000 <_roStart>:
80005000:	61746144 	cmnvs	r4, r4, asr #2
80005004:	63784520 	cmnvs	r8, #32, 10	; 0x8000000
80005008:	69747065 	ldmdbvs	r4!, {r0, r2, r5, r6, ip, sp, lr}^
8000500c:	0a3a6e6f 	beq	80ea09d0 <_bssEnd+0xe609d0>
80005010:	00000000 	andeq	r0, r0, r0
80005014:	4c4c554e 	cfstr64mi	mvdx5, [ip], {78}	; 0x4e
80005018:	746e6520 	strbtvc	r6, [lr], #-1312	; 0xfffffae0
8000501c:	69207972 	stmdbvs	r0!, {r1, r4, r5, r6, r8, fp, ip, sp, lr}
80005020:	6548206e 	strbvs	r2, [r8, #-110]	; 0xffffff92
80005024:	64417061 	strbvs	r7, [r1], #-97	; 0xffffff9f
80005028:	4c6f5464 	cfstrdmi	mvd5, [pc], #-400	; 80004ea0 <Halt+0xb7c>
8000502c:	28747369 	ldmdacs	r4!, {r0, r3, r5, r6, r8, r9, ip, sp, lr}^
80005030:	00000029 	andeq	r0, r0, r9, lsr #32
80005034:	70616548 	rsbvc	r6, r1, r8, asr #10
80005038:	54646441 	strbtpl	r6, [r4], #-1089	; 0xfffffbbf
8000503c:	73694c6f 	cmnvc	r9, #28416	; 0x6f00
80005040:	00292874 	eoreq	r2, r9, r4, ror r8
80005044:	70616548 	rsbvc	r6, r1, r8, asr #10
80005048:	54646441 	strbtpl	r6, [r4], #-1089	; 0xfffffbbf
8000504c:	73694c6f 	cmnvc	r9, #28416	; 0x6f00
80005050:	20292874 	eorcs	r2, r9, r4, ror r8
80005054:	65207461 	strvs	r7, [r0, #-1121]!	; 0xfffffb9f
80005058:	00746978 	rsbseq	r6, r4, r8, ror r9
8000505c:	4c4c554e 	cfstr64mi	mvdx5, [ip], {78}	; 0x4e
80005060:	746e6520 	strbtvc	r6, [lr], #-1312	; 0xfffffae0
80005064:	69207972 	stmdbvs	r0!, {r1, r4, r5, r6, r8, fp, ip, sp, lr}
80005068:	6548206e 	strbvs	r2, [r8, #-110]	; 0xffffff92
8000506c:	6c417061 	mcrrvs	0, 6, r7, r1, cr1
80005070:	546e6769 	strbtpl	r6, [lr], #-1897	; 0xfffff897
80005074:	6761506f 	strbvs	r5, [r1, -pc, rrx]!
80005078:	00292865 	eoreq	r2, r9, r5, ror #16
8000507c:	70616548 	rsbvc	r6, r1, r8, asr #10
80005080:	67696c41 	strbvs	r6, [r9, -r1, asr #24]!
80005084:	506f546e 	rsbpl	r5, pc, lr, ror #8
80005088:	28656761 	stmdacs	r5!, {r0, r5, r6, r8, r9, sl, sp, lr}^
8000508c:	00000029 	andeq	r0, r0, r9, lsr #32
80005090:	6b726f57 	blvs	81ca0df4 <_bssEnd+0x1c60df4>
80005094:	61654820 	cmnvs	r5, r0, lsr #16
80005098:	20726564 	rsbscs	r6, r2, r4, ror #10
8000509c:	48206e69 	stmdami	r0!, {r0, r3, r5, r6, r9, sl, fp, sp, lr}
800050a0:	41706165 	cmnmi	r0, r5, ror #2
800050a4:	6e67696c 	vnmulvs.f16	s13, s14, s25	; <UNPREDICTABLE>
800050a8:	61506f54 	cmpvs	r0, r4, asr pc
800050ac:	29286567 	stmdbcs	r8!, {r0, r1, r2, r5, r6, r8, sl, sp, lr}
800050b0:	00000000 	andeq	r0, r0, r0
800050b4:	20646c4f 	rsbcs	r6, r4, pc, asr #24
800050b8:	64616548 	strbtvs	r6, [r1], #-1352	; 0xfffffab8
800050bc:	69207265 	stmdbvs	r0!, {r0, r2, r5, r6, r9, ip, sp, lr}
800050c0:	6548206e 	strbvs	r2, [r8, #-110]	; 0xffffff92
800050c4:	6c417061 	mcrrvs	0, 6, r7, r1, cr1
800050c8:	546e6769 	strbtpl	r6, [lr], #-1897	; 0xfffff897
800050cc:	6761506f 	strbvs	r5, [r1, -pc, rrx]!
800050d0:	20292865 	eorcs	r2, r9, r5, ror #16
800050d4:	65736c65 	ldrbvs	r6, [r3, #-3173]!	; 0xfffff39b
800050d8:	00000000 	andeq	r0, r0, r0
800050dc:	20646c4f 	rsbcs	r6, r4, pc, asr #24
800050e0:	64616548 	strbtvs	r6, [r1], #-1352	; 0xfffffab8
800050e4:	69207265 	stmdbvs	r0!, {r0, r2, r5, r6, r9, ip, sp, lr}
800050e8:	6548206e 	strbvs	r2, [r8, #-110]	; 0xffffff92
800050ec:	6c417061 	mcrrvs	0, 6, r7, r1, cr1
800050f0:	546e6769 	strbtpl	r6, [lr], #-1897	; 0xfffff897
800050f4:	6761506f 	strbvs	r5, [r1, -pc, rrx]!
800050f8:	20292865 	eorcs	r2, r9, r5, ror #16
800050fc:	72207461 	eorvc	r7, r0, #1627389952	; 0x61000000
80005100:	72757465 	rsbsvc	r7, r5, #1694498816	; 0x65000000
80005104:	0000006e 	andeq	r0, r0, lr, rrx
80005108:	2077654e 	rsbscs	r6, r7, lr, asr #10
8000510c:	64616548 	strbtvs	r6, [r1], #-1352	; 0xfffffab8
80005110:	69207265 	stmdbvs	r0!, {r0, r2, r5, r6, r9, ip, sp, lr}
80005114:	6548206e 	strbvs	r2, [r8, #-110]	; 0xffffff92
80005118:	6c417061 	mcrrvs	0, 6, r7, r1, cr1
8000511c:	546e6769 	strbtpl	r6, [lr], #-1897	; 0xfffff897
80005120:	6761506f 	strbvs	r5, [r1, -pc, rrx]!
80005124:	20292865 	eorcs	r2, r9, r5, ror #16
80005128:	72207461 	eorvc	r7, r0, #1627389952	; 0x61000000
8000512c:	72757465 	rsbsvc	r7, r5, #1694498816	; 0x65000000
80005130:	0000006e 	andeq	r0, r0, lr, rrx
80005134:	65747441 	ldrbvs	r7, [r4, #-1089]!	; 0xfffffbbf
80005138:	6974706d 	ldmdbvs	r4!, {r0, r2, r3, r5, r6, ip, sp, lr}^
8000513c:	6c20676e 	stcvs	7, cr6, [r0], #-440	; 0xfffffe48
80005140:	206b636f 	rsbcs	r6, fp, pc, ror #6
80005144:	25207962 	strcs	r7, [r0, #-2402]!	; 0xfffff69e
80005148:	74612078 	strbtvc	r2, [r1], #-120	; 0xffffff88
8000514c:	64646120 	strbtvs	r6, [r4], #-288	; 0xfffffee0
80005150:	73736572 	cmnvc	r3, #478150656	; 0x1c800000
80005154:	0a702520 	beq	81c0e5dc <_bssEnd+0x1bce5dc>
80005158:	00000000 	andeq	r0, r0, r0
8000515c:	6b636f4c 	blvs	818e0e94 <_bssEnd+0x18a0e94>
80005160:	20746120 	rsbscs	r6, r4, r0, lsr #2
80005164:	72207025 	eorvc	r7, r0, #37	; 0x25
80005168:	61656c65 	cmnvs	r5, r5, ror #24
8000516c:	0a646573 	beq	8191e740 <_bssEnd+0x18de740>
80005170:	00000000 	andeq	r0, r0, r0
80005174:	70616548 	rsbvc	r6, r1, r8, asr #10
80005178:	6f6c6c41 	svcvs	0x006c6c41
8000517c:	00292863 	eoreq	r2, r9, r3, ror #16
80005180:	70616548 	rsbvc	r6, r1, r8, asr #10
80005184:	6f6c6c41 	svcvs	0x006c6c41
80005188:	20292863 	eorcs	r2, r9, r3, ror #16
8000518c:	65746661 	ldrbvs	r6, [r4, #-1633]!	; 0xfffff99f
80005190:	6c612072 	stclvs	0, cr2, [r1], #-456	; 0xfffffe38
80005194:	6d6e6769 	stclvs	7, cr6, [lr, #-420]!	; 0xfffffe5c
80005198:	00746e65 	rsbseq	r6, r4, r5, ror #28
8000519c:	75736552 	ldrbvc	r6, [r3, #-1362]!	; 0xfffffaae
800051a0:	6e69746c 	cdpvs	4, 6, cr7, cr9, cr12, {3}
800051a4:	65482067 	strbvs	r2, [r8, #-103]	; 0xffffff99
800051a8:	72656461 	rsbvc	r6, r5, #1627389952	; 0x61000000
800051ac:	66656220 	strbtvs	r6, [r5], -r0, lsr #4
800051b0:	2065726f 	rsbcs	r7, r5, pc, ror #4
800051b4:	75746572 	ldrbvc	r6, [r4, #-1394]!	; 0xfffffa8e
800051b8:	28206e72 	stmdacs	r0!, {r1, r4, r5, r6, r9, sl, fp, sp, lr}
800051bc:	646f6f67 	strbtvs	r6, [pc], #-3943	; 800051c4 <_roStart+0x1c4>
800051c0:	7a697320 	bvc	81a61e48 <_bssEnd+0x1a21e48>
800051c4:	00002965 	andeq	r2, r0, r5, ror #18
800051c8:	75736552 	ldrbvc	r6, [r3, #-1362]!	; 0xfffffaae
800051cc:	6e69746c 	cdpvs	4, 6, cr7, cr9, cr12, {3}
800051d0:	65482067 	strbvs	r2, [r8, #-103]	; 0xffffff99
800051d4:	72656461 	rsbvc	r6, r5, #1627389952	; 0x61000000
800051d8:	66656220 	strbtvs	r6, [r5], -r0, lsr #4
800051dc:	2065726f 	rsbcs	r7, r5, pc, ror #4
800051e0:	75746572 	ldrbvc	r6, [r4, #-1394]!	; 0xfffffa8e
800051e4:	28206e72 	stmdacs	r0!, {r1, r4, r5, r6, r9, sl, fp, sp, lr}
800051e8:	20676962 	rsbcs	r6, r7, r2, ror #18
800051ec:	657a6973 	ldrbvs	r6, [sl, #-2419]!	; 0xfffff68d
800051f0:	00000029 	andeq	r0, r0, r9, lsr #32
800051f4:	70616548 	rsbvc	r6, r1, r8, asr #10
800051f8:	72724520 	rsbsvc	r4, r2, #32, 10	; 0x8000000
800051fc:	2121726f 			; <UNDEFINED> instruction: 0x2121726f
80005200:	73252021 			; <UNDEFINED> instruction: 0x73252021
80005204:	25202d20 	strcs	r2, [r0, #-3360]!	; 0xfffff2e0
80005208:	00000a73 	andeq	r0, r0, r3, ror sl
8000520c:	70616548 	rsbvc	r6, r1, r8, asr #10
80005210:	72747320 	rsbsvc	r7, r4, #32, 6	; 0x80000000
80005214:	75746375 	ldrbvc	r6, [r4, #-885]!	; 0xfffffc8b
80005218:	20736572 	rsbscs	r6, r3, r2, ror r5
8000521c:	65766168 	ldrbvs	r6, [r6, #-360]!	; 0xfffffe98
80005220:	65656220 	strbvs	r6, [r5, #-544]!	; 0xfffffde0
80005224:	766f206e 	strbtvc	r2, [pc], -lr, rrx
80005228:	75727265 	ldrbvc	r7, [r2, #-613]!	; 0xfffffd9b
8000522c:	7962206e 	stmdbvc	r2!, {r1, r2, r3, r5, r6, sp}^
80005230:	74616420 	strbtvc	r6, [r1], #-1056	; 0xfffffbe0
80005234:	00212161 	eoreq	r2, r1, r1, ror #2
80005238:	70616548 	rsbvc	r6, r1, r8, asr #10
8000523c:	65724320 	ldrbvs	r4, [r2, #-800]!	; 0xfffffce0
80005240:	64657461 	strbtvs	r7, [r5], #-1121	; 0xfffffb9f
80005244:	0000000a 	andeq	r0, r0, sl
80005248:	65482020 	strbvs	r2, [r8, #-32]	; 0xffffffe0
8000524c:	53207061 			; <UNDEFINED> instruction: 0x53207061
80005250:	74726174 	ldrbtvc	r6, [r2], #-372	; 0xfffffe8c
80005254:	636f4c20 	cmnvs	pc, #32, 24	; 0x2000
80005258:	6f697461 	svcvs	0x00697461
8000525c:	25203a6e 	strcs	r3, [r0, #-2670]!	; 0xfffff592
80005260:	00000a70 	andeq	r0, r0, r0, ror sl
80005264:	75432020 	strbvc	r2, [r3, #-32]	; 0xffffffe0
80005268:	6e657272 	mcrvs	2, 3, r7, cr5, cr2, {3}
8000526c:	65482074 	strbvs	r2, [r8, #-116]	; 0xffffff8c
80005270:	53207061 			; <UNDEFINED> instruction: 0x53207061
80005274:	2e657a69 	vnmulcs.f32	s15, s10, s19
80005278:	25203a2e 	strcs	r3, [r0, #-2606]!	; 0xfffff5d2
8000527c:	00000a70 	andeq	r0, r0, r0, ror sl
80005280:	65482020 	strbvs	r2, [r8, #-32]	; 0xffffffe0
80005284:	45207061 	strmi	r7, [r0, #-97]!	; 0xffffff9f
80005288:	4c20646e 	cfstrsmi	mvf6, [r0], #-440	; 0xfffffe48
8000528c:	7461636f 	strbtvc	r6, [r1], #-879	; 0xfffffc91
80005290:	2e6e6f69 	cdpcs	15, 6, cr6, cr14, cr9, {3}
80005294:	25203a2e 	strcs	r3, [r0, #-2606]!	; 0xfffff5d2
80005298:	00000a70 	andeq	r0, r0, r0, ror sl
8000529c:	20646142 	rsbcs	r6, r4, r2, asr #2
800052a0:	64616548 	strbtvs	r6, [r1], #-1352	; 0xfffffab8
800052a4:	70207265 	eorvc	r7, r0, r5, ror #4
800052a8:	65737361 	ldrbvs	r7, [r3, #-865]!	; 0xfffffc9f
800052ac:	6e692064 	cdpvs	0, 6, cr2, cr9, cr4, {3}
800052b0:	48206f74 	stmdami	r0!, {r2, r4, r5, r6, r8, r9, sl, fp, sp, lr}
800052b4:	4d706165 	ldfmie	f6, [r0, #-404]!	; 0xfffffe6c
800052b8:	65677265 	strbvs	r7, [r7, #-613]!	; 0xfffffd9b
800052bc:	7466654c 	strbtvc	r6, [r6], #-1356	; 0xfffffab4
800052c0:	00002928 	andeq	r2, r0, r8, lsr #18
800052c4:	20646142 	rsbcs	r6, r4, r2, asr #2
800052c8:	64616548 	strbtvs	r6, [r1], #-1352	; 0xfffffab8
800052cc:	70207265 	eorvc	r7, r0, r5, ror #4
800052d0:	65737361 	ldrbvs	r7, [r3, #-865]!	; 0xfffffc9f
800052d4:	6e692064 	cdpvs	0, 6, cr2, cr9, cr4, {3}
800052d8:	48206f74 	stmdami	r0!, {r2, r4, r5, r6, r8, r9, sl, fp, sp, lr}
800052dc:	4d706165 	ldfmie	f6, [r0, #-404]!	; 0xfffffe6c
800052e0:	65677265 	strbvs	r7, [r7, #-613]!	; 0xfffffd9b
800052e4:	68676952 	stmdavs	r7!, {r1, r4, r6, r8, fp, sp, lr}^
800052e8:	00292874 	eoreq	r2, r9, r4, ror r8
800052ec:	68676972 	stmdavs	r7!, {r1, r4, r5, r6, r8, fp, sp, lr}^
800052f0:	61654874 	smcvs	21636	; 0x5484
800052f4:	20726564 	rsbscs	r6, r2, r4, ror #10
800052f8:	48206e69 	stmdami	r0!, {r0, r3, r5, r6, r9, sl, fp, sp, lr}
800052fc:	4d706165 	ldfmie	f6, [r0, #-404]!	; 0xfffffe6c
80005300:	65677265 	strbvs	r7, [r7, #-613]!	; 0xfffffd9b
80005304:	68676952 	stmdavs	r7!, {r1, r4, r6, r8, fp, sp, lr}^
80005308:	00292874 	eoreq	r2, r9, r4, ror r8
8000530c:	61657243 	cmnvs	r5, r3, asr #4
80005310:	20646574 	rsbcs	r6, r4, r4, ror r5
80005314:	70616548 	rsbvc	r6, r1, r8, asr #10
80005318:	4c77654e 	cfldr64mi	mvdx6, [r7], #-312	; 0xfffffec8
8000531c:	45747369 	ldrbmi	r7, [r4, #-873]!	; 0xfffffc97
80005320:	7972746e 	ldmdbvc	r2!, {r1, r2, r3, r5, r6, sl, ip, sp, lr}^
80005324:	00002928 	andeq	r2, r0, r8, lsr #18
80005328:	62616e55 	rsbvs	r6, r1, #1360	; 0x550
8000532c:	7420656c 	strtvc	r6, [r0], #-1388	; 0xfffffa94
80005330:	6c61206f 	stclvs	0, cr2, [r1], #-444	; 0xfffffe44
80005334:	61636f6c 	cmnvs	r3, ip, ror #30
80005338:	61206574 			; <UNDEFINED> instruction: 0x61206574
8000533c:	65726620 	ldrbvs	r6, [r2, #-1568]!	; 0xfffff9e0
80005340:	724f2065 	subvc	r2, pc, #101	; 0x65
80005344:	65726564 	ldrbvs	r6, [r2, #-1380]!	; 0xfffffa9c
80005348:	73694c64 	cmnvc	r9, #100, 24	; 0x6400
8000534c:	6e652074 	mcrvs	0, 3, r2, cr5, cr4, {3}
80005350:	00797274 	rsbseq	r7, r9, r4, ror r2
80005354:	4c4c554e 	cfstr64mi	mvdx5, [ip], {78}	; 0x4e
80005358:	746e6520 	strbtvc	r6, [lr], #-1312	; 0xfffffae0
8000535c:	69207972 	stmdbvs	r0!, {r1, r4, r5, r6, r8, fp, ip, sp, lr}
80005360:	6548206e 	strbvs	r2, [r8, #-110]	; 0xffffff92
80005364:	65527061 	ldrbvs	r7, [r2, #-97]	; 0xffffff9f
80005368:	7361656c 	cmnvc	r1, #108, 10	; 0x1b000000
8000536c:	746e4565 	strbtvc	r4, [lr], #-1381	; 0xfffffa9b
80005370:	29287972 	stmdbcs	r8!, {r1, r4, r5, r6, r8, fp, ip, sp, lr}
80005374:	00000000 	andeq	r0, r0, r0
80005378:	70616548 	rsbvc	r6, r1, r8, asr #10
8000537c:	656c6552 	strbvs	r6, [ip, #-1362]!	; 0xfffffaae
80005380:	45657361 	strbmi	r7, [r5, #-865]!	; 0xfffffc9f
80005384:	7972746e 	ldmdbvc	r2!, {r1, r2, r3, r5, r6, sl, ip, sp, lr}^
80005388:	00002928 	andeq	r2, r0, r8, lsr #18
8000538c:	4c4c554e 	cfstr64mi	mvdx5, [ip], {78}	; 0x4e
80005390:	746e6520 	strbtvc	r6, [lr], #-1312	; 0xfffffae0
80005394:	69207972 	stmdbvs	r0!, {r1, r4, r5, r6, r8, fp, ip, sp, lr}
80005398:	6548206e 	strbvs	r2, [r8, #-110]	; 0xffffff92
8000539c:	65527061 	ldrbvs	r7, [r2, #-97]	; 0xffffff9f
800053a0:	65766f6d 	ldrbvs	r6, [r6, #-3949]!	; 0xfffff093
800053a4:	6d6f7246 	sfmvs	f7, 2, [pc, #-280]!	; 80005294 <_roStart+0x294>
800053a8:	7473694c 	ldrbtvc	r6, [r3], #-2380	; 0xfffff6b4
800053ac:	00002928 	andeq	r2, r0, r8, lsr #18
800053b0:	70616548 	rsbvc	r6, r1, r8, asr #10
800053b4:	6f6d6552 	svcvs	0x006d6552
800053b8:	72466576 	subvc	r6, r6, #494927872	; 0x1d800000
800053bc:	694c6d6f 	stmdbvs	ip, {r0, r1, r2, r3, r5, r6, r8, sl, fp, sp, lr}^
800053c0:	29287473 	stmdbcs	r8!, {r0, r1, r4, r5, r6, sl, ip, sp, lr}
800053c4:	00000000 	andeq	r0, r0, r0
800053c8:	4c4c554e 	cfstr64mi	mvdx5, [ip], {78}	; 0x4e
800053cc:	746e6520 	strbtvc	r6, [lr], #-1312	; 0xfffffae0
800053d0:	69207972 	stmdbvs	r0!, {r1, r4, r5, r6, r8, fp, ip, sp, lr}
800053d4:	6548206e 	strbvs	r2, [r8, #-110]	; 0xffffff92
800053d8:	70537061 	subsvc	r7, r3, r1, rrx
800053dc:	4174696c 	cmnmi	r4, ip, ror #18
800053e0:	00292874 	eoreq	r2, r9, r4, ror r8
800053e4:	70616548 	rsbvc	r6, r1, r8, asr #10
800053e8:	696c7053 	stmdbvs	ip!, {r0, r1, r4, r6, ip, sp, lr}^
800053ec:	28744174 	ldmdacs	r4!, {r2, r4, r5, r6, r8, lr}^
800053f0:	00000029 	andeq	r0, r0, r9, lsr #32
800053f4:	70616548 	rsbvc	r6, r1, r8, asr #10
800053f8:	696c7053 	stmdbvs	ip!, {r0, r1, r4, r6, ip, sp, lr}^
800053fc:	20744174 	rsbscs	r4, r4, r4, ror r1
80005400:	646c6f5b 	strbtvs	r6, [ip], #-3931	; 0xfffff0a5
80005404:	5d726448 	cfldrdpl	mvd6, [r2, #-288]!	; 0xfffffee0
80005408:	00000000 	andeq	r0, r0, r0
8000540c:	70616548 	rsbvc	r6, r1, r8, asr #10
80005410:	696c7053 	stmdbvs	ip!, {r0, r1, r4, r6, ip, sp, lr}^
80005414:	20744174 	rsbscs	r4, r4, r4, ror r1
80005418:	77656e5b 			; <UNDEFINED> instruction: 0x77656e5b
8000541c:	5d726448 	cfldrdpl	mvd6, [r2, #-288]!	; 0xfffffee0
80005420:	00000000 	andeq	r0, r0, r0
80005424:	62616e55 	rsbvs	r6, r1, #1360	; 0x550
80005428:	7420656c 	strtvc	r6, [r0], #-1388	; 0xfffffa94
8000542c:	6176206f 	cmnvs	r6, pc, rrx
80005430:	6164696c 	cmnvs	r4, ip, ror #18
80005434:	4e206574 	mcrmi	5, 1, r6, cr0, cr4, {3}
80005438:	204c4c55 	subcs	r4, ip, r5, asr ip
8000543c:	64616568 	strbtvs	r6, [r1], #-1384	; 0xfffffa98
80005440:	00007265 	andeq	r7, r0, r5, ror #4
80005444:	61766e49 	cmnvs	r6, r9, asr #28
80005448:	2064696c 	rsbcs	r6, r4, ip, ror #18
8000544c:	70616548 	rsbvc	r6, r1, r8, asr #10
80005450:	61654820 	cmnvs	r5, r0, lsr #16
80005454:	20726564 	rsbscs	r6, r2, r4, ror #10
80005458:	6967614d 	stmdbvs	r7!, {r0, r2, r3, r6, r8, sp, lr}^
8000545c:	754e2063 	strbvc	r2, [lr, #-99]	; 0xffffff9d
80005460:	7265626d 	rsbvc	r6, r5, #-805306362	; 0xd0000006
80005464:	00000000 	andeq	r0, r0, r0
80005468:	61766e49 	cmnvs	r6, r9, asr #28
8000546c:	2064696c 	rsbcs	r6, r4, ip, ror #18
80005470:	70616548 	rsbvc	r6, r1, r8, asr #10
80005474:	6f6f4620 	svcvs	0x006f4620
80005478:	20726574 	rsbscs	r6, r2, r4, ror r5
8000547c:	6967614d 	stmdbvs	r7!, {r0, r2, r3, r6, r8, sp, lr}^
80005480:	754e2063 	strbvc	r2, [lr, #-99]	; 0xffffff9d
80005484:	7265626d 	rsbvc	r6, r5, #-805306362	; 0xd0000006
80005488:	00000000 	andeq	r0, r0, r0
8000548c:	64616548 	strbtvs	r6, [r1], #-1352	; 0xfffffab8
80005490:	462f7265 	strtmi	r7, [pc], -r5, ror #4
80005494:	65746f6f 	ldrbvs	r6, [r4, #-3951]!	; 0xfffff091
80005498:	614d2072 	hvcvs	53762	; 0xd202
8000549c:	20636967 	rsbcs	r6, r3, r7, ror #18
800054a0:	626d754e 	rsbvs	r7, sp, #327155712	; 0x13800000
800054a4:	482f7265 	stmdami	pc!, {r0, r2, r5, r6, r9, ip, sp, lr}	; <UNPREDICTABLE>
800054a8:	20656c6f 	rsbcs	r6, r5, pc, ror #24
800054ac:	6d73696d 			; <UNDEFINED> instruction: 0x6d73696d
800054b0:	68637461 	stmdavs	r3!, {r0, r5, r6, sl, ip, sp, lr}^
800054b4:	00000000 	andeq	r0, r0, r0
800054b8:	70616548 	rsbvc	r6, r1, r8, asr #10
800054bc:	6c6f6820 	stclvs	8, cr6, [pc], #-128	; 80005444 <_roStart+0x444>
800054c0:	61682065 	cmnvs	r8, r5, rrx
800054c4:	6f6e2073 	svcvs	0x006e2073
800054c8:	64726f20 	ldrbtvs	r6, [r2], #-3872	; 0xfffff0e0
800054cc:	64657265 	strbtvs	r7, [r5], #-613	; 0xfffffd9b
800054d0:	73696c20 	cmnvc	r9, #32, 24	; 0x2000
800054d4:	6e652074 	mcrvs	0, 3, r2, cr5, cr4, {3}
800054d8:	00797274 	rsbseq	r7, r9, r4, ror r2
800054dc:	70616548 	rsbvc	r6, r1, r8, asr #10
800054e0:	6c6c6120 	stfvse	f6, [ip], #-128	; 0xffffff80
800054e4:	7461636f 	strbtvc	r6, [r1], #-879	; 0xfffffc91
800054e8:	62206465 	eorvs	r6, r0, #1694498816	; 0x65000000
800054ec:	6b636f6c 	blvs	818e12a4 <_bssEnd+0x18a12a4>
800054f0:	73616820 	cmnvc	r1, #32, 16	; 0x200000
800054f4:	206e6120 	rsbcs	r6, lr, r0, lsr #2
800054f8:	6564726f 	strbvs	r7, [r4, #-623]!	; 0xfffffd91
800054fc:	20646572 	rsbcs	r6, r4, r2, ror r5
80005500:	7473696c 	ldrbtvc	r6, [r3], #-2412	; 0xfffff694
80005504:	746e6520 	strbtvc	r6, [lr], #-1312	; 0xfffffae0
80005508:	00007972 	andeq	r7, r0, r2, ror r9
8000550c:	72746e45 	rsbsvc	r6, r4, #1104	; 0x450
80005510:	6f642079 	svcvs	0x00642079
80005514:	6e207365 	cdpvs	3, 2, cr7, cr0, cr5, {3}
80005518:	7020746f 	eorvc	r7, r0, pc, ror #8
8000551c:	746e696f 	strbtvc	r6, [lr], #-2415	; 0xfffff691
80005520:	206f7420 	rsbcs	r7, pc, r0, lsr #8
80005524:	73696874 	cmnvc	r9, #116, 16	; 0x740000
80005528:	61656820 	cmnvs	r5, r0, lsr #16
8000552c:	00726564 	rsbseq	r6, r2, r4, ror #10
80005530:	64616548 	strbtvs	r6, [r1], #-1352	; 0xfffffab8
80005534:	452f7265 	strmi	r7, [pc, #-613]!	; 800052d7 <_roStart+0x2d7>
80005538:	7972746e 	ldmdbvc	r2!, {r1, r2, r3, r5, r6, sl, ip, sp, lr}^
8000553c:	7a697320 	bvc	81a621c4 <_bssEnd+0x1a221c4>
80005540:	696d2065 	stmdbvs	sp!, {r0, r2, r5, r6, sp}^
80005544:	74616d73 	strbtvc	r6, [r1], #-3443	; 0xfffff28d
80005548:	00006863 	andeq	r6, r0, r3, ror #16
8000554c:	72617453 	rsbvc	r7, r1, #1392508928	; 0x53000000
80005550:	666f2074 			; <UNDEFINED> instruction: 0x666f2074
80005554:	61656820 	cmnvs	r5, r0, lsr #16
80005558:	6d654d70 	stclvs	13, cr4, [r5, #-448]!	; 0xfffffe40
8000555c:	2079726f 	rsbscs	r7, r9, pc, ror #4
80005560:	65207369 	strvs	r7, [r0, #-873]!	; 0xfffffc97
80005564:	7974706d 	ldmdbvc	r4!, {r0, r2, r3, r5, r6, ip, sp, lr}^
80005568:	00000000 	andeq	r0, r0, r0
8000556c:	0000004f 	andeq	r0, r0, pc, asr #32
80005570:	61207441 			; <UNDEFINED> instruction: 0x61207441
80005574:	65726464 	ldrbvs	r6, [r2, #-1124]!	; 0xfffffb9c
80005578:	203a7373 	eorscs	r7, sl, r3, ror r3
8000557c:	000a7025 	andeq	r7, sl, r5, lsr #32
80005580:	3a305220 	bcc	80c19e08 <_bssEnd+0xbd9e08>
80005584:	20702520 	rsbscs	r2, r0, r0, lsr #10
80005588:	31522020 	cmpcc	r2, r0, lsr #32
8000558c:	7025203a 	eorvc	r2, r5, sl, lsr r0
80005590:	52202020 	eorpl	r2, r0, #32
80005594:	25203a32 	strcs	r3, [r0, #-2610]!	; 0xfffff5ce
80005598:	00000a70 	andeq	r0, r0, r0, ror sl
8000559c:	3a335220 	bcc	80cd9e24 <_bssEnd+0xc99e24>
800055a0:	20702520 	rsbscs	r2, r0, r0, lsr #10
800055a4:	34522020 	ldrbcc	r2, [r2], #-32	; 0xffffffe0
800055a8:	7025203a 	eorvc	r2, r5, sl, lsr r0
800055ac:	52202020 	eorpl	r2, r0, #32
800055b0:	25203a35 	strcs	r3, [r0, #-2613]!	; 0xfffff5cb
800055b4:	00000a70 	andeq	r0, r0, r0, ror sl
800055b8:	3a365220 	bcc	80d99e40 <_bssEnd+0xd59e40>
800055bc:	20702520 	rsbscs	r2, r0, r0, lsr #10
800055c0:	37522020 	ldrbcc	r2, [r2, -r0, lsr #32]
800055c4:	7025203a 	eorvc	r2, r5, sl, lsr r0
800055c8:	52202020 	eorpl	r2, r0, #32
800055cc:	25203a38 	strcs	r3, [r0, #-2616]!	; 0xfffff5c8
800055d0:	00000a70 	andeq	r0, r0, r0, ror sl
800055d4:	3a395220 	bcc	80e59e5c <_bssEnd+0xe19e5c>
800055d8:	20702520 	rsbscs	r2, r0, r0, lsr #10
800055dc:	30315220 	eorscc	r5, r1, r0, lsr #4
800055e0:	7025203a 	eorvc	r2, r5, sl, lsr r0
800055e4:	31522020 	cmpcc	r2, r0, lsr #32
800055e8:	25203a31 	strcs	r3, [r0, #-2609]!	; 0xfffff5cf
800055ec:	00000a70 	andeq	r0, r0, r0, ror sl
800055f0:	3a323152 	bcc	80c91b40 <_bssEnd+0xc51b40>
800055f4:	20702520 	rsbscs	r2, r0, r0, lsr #10
800055f8:	50532020 	subspl	r2, r3, r0, lsr #32
800055fc:	7025203a 	eorvc	r2, r5, sl, lsr r0
80005600:	4c202020 	stcmi	0, cr2, [r0], #-128	; 0xffffff80
80005604:	65725f52 	ldrbvs	r5, [r2, #-3922]!	; 0xfffff0ae
80005608:	25203a74 	strcs	r3, [r0, #-2676]!	; 0xfffff58c
8000560c:	00000a70 	andeq	r0, r0, r0, ror sl
80005610:	52535053 	subspl	r5, r3, #83	; 0x53
80005614:	7465725f 	strbtvc	r7, [r5], #-607	; 0xfffffda1
80005618:	7025203a 	eorvc	r2, r5, sl, lsr r0
8000561c:	20202020 	eorcs	r2, r0, r0, lsr #32
80005620:	70797420 	rsbsvc	r7, r9, r0, lsr #8
80005624:	25203a65 	strcs	r3, [r0, #-2661]!	; 0xfffff59b
80005628:	00000a78 	andeq	r0, r0, r8, ror sl
8000562c:	6464410a 	strbtvs	r4, [r4], #-266	; 0xfffffef6
80005630:	6f697469 	svcvs	0x00697469
80005634:	206c616e 	rsbcs	r6, ip, lr, ror #2
80005638:	61746144 	cmnvs	r4, r4, asr #2
8000563c:	696f5020 	stmdbvs	pc!, {r5, ip, lr}^	; <UNPREDICTABLE>
80005640:	3a73746e 	bcc	81ce2800 <_bssEnd+0x1ca2800>
80005644:	0000000a 	andeq	r0, r0, sl
80005648:	72657355 	rsbvc	r7, r5, #1409286145	; 0x54000001
8000564c:	3a524c20 	bcc	814986d4 <_bssEnd+0x14586d4>
80005650:	20702520 	rsbscs	r2, r0, r0, lsr #10
80005654:	65735520 	ldrbvs	r5, [r3, #-1312]!	; 0xfffffae0
80005658:	50532072 	subspl	r2, r3, r2, ror r0
8000565c:	7025203a 	eorvc	r2, r5, sl, lsr r0
80005660:	0000000a 	andeq	r0, r0, sl
80005664:	20637653 	rsbcs	r7, r3, r3, asr r6
80005668:	203a524c 	eorscs	r5, sl, ip, asr #4
8000566c:	000a7025 	andeq	r7, sl, r5, lsr #32
80005670:	20525349 	subscs	r5, r2, r9, asr #6
80005674:	646e6550 	strbtvs	r6, [lr], #-1360	; 0xfffffab0
80005678:	3a676e69 	bcc	819e1024 <_bssEnd+0x19a1024>
8000567c:	0a702520 	beq	81c0eb04 <_bssEnd+0x1bceb04>
80005680:	00000000 	andeq	r0, r0, r0
80005684:	65746544 	ldrbvs	r6, [r4, #-1348]!	; 0xfffffabc
80005688:	6e696d72 	mcrvs	13, 3, r6, cr9, cr2, {3}
8000568c:	49206465 	stmdbmi	r0!, {r0, r2, r5, r6, sl, sp, lr}
80005690:	74205152 	strtvc	r5, [r0], #-338	; 0xfffffeae
80005694:	6562206f 	strbvs	r2, [r2, #-111]!	; 0xffffff91
80005698:	0a782520 	beq	81e0eb20 <_bssEnd+0x1dceb20>
8000569c:	00000000 	andeq	r0, r0, r0
800056a0:	4f525245 	svcmi	0x00525245
800056a4:	55203a52 	strpl	r3, [r0, #-2642]!	; 0xfffff5ae
800056a8:	6c62616e 	stfvse	f6, [r2], #-440	; 0xfffffe48
800056ac:	6f742065 	svcvs	0x00742065
800056b0:	74656420 	strbtvc	r6, [r5], #-1056	; 0xfffffbe0
800056b4:	696d7265 	stmdbvs	sp!, {r0, r2, r5, r6, r9, ip, sp, lr}^
800056b8:	4920656e 	stmdbmi	r0!, {r1, r2, r3, r5, r6, r8, sl, sp, lr}
800056bc:	6e205152 	mcrvs	1, 1, r5, cr0, cr2, {2}
800056c0:	65626d75 	strbvs	r6, [r2, #-3445]!	; 0xfffff28b
800056c4:	25203a72 	strcs	r3, [r0, #-2674]!	; 0xfffff58e
800056c8:	00000a70 	andeq	r0, r0, r0, ror sl
800056cc:	63657845 	cmnvs	r5, #4521984	; 0x450000
800056d0:	6e697475 	mcrvs	4, 3, r7, cr9, cr5, {3}
800056d4:	6e692067 	cdpvs	0, 6, cr2, cr9, cr7, {3}
800056d8:	72726574 	rsbsvc	r6, r2, #116, 10	; 0x1d000000
800056dc:	20747075 	rsbscs	r7, r4, r5, ror r0
800056e0:	61207825 			; <UNDEFINED> instruction: 0x61207825
800056e4:	70252074 	eorvc	r2, r5, r4, ror r0
800056e8:	0000000a 	andeq	r0, r0, sl
800056ec:	61686e55 	cmnvs	r8, r5, asr lr
800056f0:	656c646e 	strbvs	r6, [ip, #-1134]!	; 0xfffffb92
800056f4:	6e492064 	cdpvs	0, 4, cr2, cr9, cr4, {3}
800056f8:	72726574 	rsbsvc	r6, r2, #116, 10	; 0x1d000000
800056fc:	20747075 	rsbscs	r7, r4, r5, ror r0
80005700:	0a782523 	beq	81e0eb94 <_bssEnd+0x1dceb94>
80005704:	00000000 	andeq	r0, r0, r0
80005708:	6e656857 	mcrvs	8, 3, r6, cr5, cr7, {2}
8000570c:	67657220 	strbvs	r7, [r5, -r0, lsr #4]!
80005710:	65747369 	ldrbvs	r7, [r4, #-873]!	; 0xfffffc97
80005714:	676e6972 			; <UNDEFINED> instruction: 0x676e6972
80005718:	746e6920 	strbtvc	r6, [lr], #-2336	; 0xfffff6e0
8000571c:	75727265 	ldrbvc	r7, [r2, #-613]!	; 0xfffffd9b
80005720:	25207470 	strcs	r7, [r0, #-1136]!	; 0xfffffb90
80005724:	61202c64 			; <UNDEFINED> instruction: 0x61202c64
80005728:	6e616820 	cdpvs	8, 6, cr6, cr1, cr0, {1}
8000572c:	72656c64 	rsbvc	r6, r5, #100, 24	; 0x6400
80005730:	20736920 	rsbscs	r6, r3, r0, lsr #18
80005734:	65726c61 	ldrbvs	r6, [r2, #-3169]!	; 0xfffff39f
80005738:	20796461 	rsbscs	r6, r9, r1, ror #8
8000573c:	69676572 	stmdbvs	r7!, {r1, r4, r5, r6, r8, sl, sp, lr}^
80005740:	72657473 	rsbvc	r7, r5, #1929379840	; 0x73000000
80005744:	203b6465 	eorscs	r6, fp, r5, ror #8
80005748:	72657375 	rsbvc	r7, r5, #-738197503	; 0xd4000001
8000574c:	72734920 	rsbsvc	r4, r3, #32, 18	; 0x80000
80005750:	65726e55 	ldrbvs	r6, [r2, #-3669]!	; 0xfffff1ab
80005754:	74736967 	ldrbtvc	r6, [r3], #-2407	; 0xfffff699
80005758:	29287265 	stmdbcs	r8!, {r0, r2, r5, r6, r9, ip, sp, lr}
8000575c:	0000000a 	andeq	r0, r0, sl
80005760:	6e656857 	mcrvs	8, 3, r6, cr5, cr7, {2}
80005764:	726e7520 	rsbvc	r7, lr, #32, 10	; 0x8000000
80005768:	73696765 	cmnvc	r9, #26476544	; 0x1940000
8000576c:	69726574 	ldmdbvs	r2!, {r2, r4, r5, r6, r8, sl, sp, lr}^
80005770:	6920676e 	stmdbvs	r0!, {r1, r2, r3, r5, r6, r8, r9, sl, sp, lr}
80005774:	7265746e 	rsbvc	r7, r5, #1845493760	; 0x6e000000
80005778:	74707572 	ldrbtvc	r7, [r0], #-1394	; 0xfffffa8e
8000577c:	2c642520 	cfstr64cs	mvdx2, [r4], #-128	; 0xffffff80
80005780:	206f6e20 	rsbcs	r6, pc, r0, lsr #28
80005784:	646e6168 	strbtvs	r6, [lr], #-360	; 0xfffffe98
80005788:	2072656c 	rsbscs	r6, r2, ip, ror #10
8000578c:	72207369 	eorvc	r7, r0, #-1543503871	; 0xa4000001
80005790:	73696765 	cmnvc	r9, #26476544	; 0x1940000
80005794:	65726574 	ldrbvs	r6, [r2, #-1396]!	; 0xfffffa8c
80005798:	00000a64 	andeq	r0, r0, r4, ror #20
8000579c:	6c707845 	ldclvs	8, cr7, [r0], #-276	; 0xfffffeec
800057a0:	74696369 	strbtvc	r6, [r9], #-873	; 0xfffffc97
800057a4:	71657220 	cmnvc	r5, r0, lsr #4
800057a8:	74736575 	ldrbtvc	r6, [r3], #-1397	; 0xfffffa8b
800057ac:	206f7420 	rsbcs	r7, pc, r0, lsr #8
800057b0:	2070616d 	rsbscs	r6, r0, sp, ror #2
800057b4:	74726976 	ldrbtvc	r6, [r2], #-2422	; 0xfffff68a
800057b8:	206c6175 	rsbcs	r6, ip, r5, ror r1
800057bc:	72646461 	rsbvc	r6, r4, #1627389952	; 0x61000000
800057c0:	20737365 	rsbscs	r7, r3, r5, ror #6
800057c4:	65722030 	ldrbvs	r2, [r2, #-48]!	; 0xffffffd0
800057c8:	65737566 	ldrbvs	r7, [r3, #-1382]!	; 0xfffffa9a
800057cc:	000a2e64 	andeq	r2, sl, r4, ror #28
800057d0:	65747441 	ldrbvs	r7, [r4, #-1089]!	; 0xfffffbbf
800057d4:	6974706d 	ldmdbvs	r4!, {r0, r2, r3, r5, r6, ip, sp, lr}^
800057d8:	7420676e 	strtvc	r6, [r0], #-1902	; 0xfffff892
800057dc:	616d206f 	cmnvs	sp, pc, rrx
800057e0:	6c612070 	stclvs	0, cr2, [r1], #-448	; 0xfffffe40
800057e4:	64616572 	strbtvs	r6, [r1], #-1394	; 0xfffffa8e
800057e8:	616d2079 	smcvs	53769	; 0xd209
800057ec:	64657070 	strbtvs	r7, [r5], #-112	; 0xffffff90
800057f0:	64646120 	strbtvs	r6, [r4], #-288	; 0xfffffee0
800057f4:	73736572 	cmnvc	r3, #478150656	; 0x1c800000
800057f8:	0a702520 	beq	81c0ec80 <_bssEnd+0x1bcec80>
800057fc:	00000000 	andeq	r0, r0, r0
80005800:	72617453 	rsbvc	r7, r1, #1392508928	; 0x53000000
80005804:	68742074 	ldmdavs	r4!, {r2, r4, r5, r6, sp}^
80005808:	4d502065 	ldclmi	0, cr2, [r0, #-404]	; 0xfffffe6c
8000580c:	7270204d 	rsbsvc	r2, r0, #77	; 0x4d
80005810:	7365636f 	cmnvc	r5, #-1140850687	; 0xbc000001
80005814:	65682073 	strbvs	r2, [r8, #-115]!	; 0xffffff8d
80005818:	69206572 	stmdbvs	r0!, {r1, r4, r5, r6, r8, sl, sp, lr}
8000581c:	7072206e 	rsbsvc	r2, r2, lr, rrx
80005820:	0a623269 	beq	818921cc <_bssEnd+0x18521cc>
80005824:	00000000 	andeq	r0, r0, r0
80005828:	66657250 			; <UNDEFINED> instruction: 0x66657250
8000582c:	68637465 	stmdavs	r3!, {r0, r2, r5, r6, sl, ip, sp, lr}^
80005830:	6f624120 	svcvs	0x00624120
80005834:	0a3a7472 	beq	80ea2a04 <_bssEnd+0xe62a04>
80005838:	00000000 	andeq	r0, r0, r0
8000583c:	6d726f4e 	ldclvs	15, cr6, [r2, #-312]!	; 0xfffffec8
80005840:	796c6c61 	stmdbvc	ip!, {r0, r5, r6, sl, fp, sp, lr}^
80005844:	646e6520 	strbtvs	r6, [lr], #-1312	; 0xfffffae0
80005848:	70206465 	eorvc	r6, r0, r5, ror #8
8000584c:	65636f72 	strbvs	r6, [r3, #-3954]!	; 0xfffff08e
80005850:	64207373 	strtvs	r7, [r0], #-883	; 0xfffffc8d
80005854:	6e206469 	cdpvs	4, 2, cr6, cr0, cr9, {3}
80005858:	6520746f 	strvs	r7, [r0, #-1135]!	; 0xfffffb91
8000585c:	000a646e 	andeq	r6, sl, lr, ror #8
80005860:	0000534f 	andeq	r5, r0, pc, asr #6
80005864:	48474948 	stmdami	r7, {r3, r6, r8, fp, lr}^
80005868:	00000000 	andeq	r0, r0, r0
8000586c:	4d524f4e 	ldclmi	15, cr4, [r2, #-312]	; 0xfffffec8
80005870:	00000000 	andeq	r0, r0, r0
80005874:	454c4449 	strbmi	r4, [ip, #-1097]	; 0xfffffbb7
80005878:	00000000 	andeq	r0, r0, r0
8000587c:	6b6f6f4c 	blvs	81be15b4 <_bssEnd+0x1ba15b4>
80005880:	20676e69 	rsbcs	r6, r7, r9, ror #28
80005884:	20726f66 	rsbscs	r6, r2, r6, ror #30
80005888:	656e2061 	strbvs	r2, [lr, #-97]!	; 0xffffff9f
8000588c:	72702077 	rsbsvc	r2, r0, #119	; 0x77
80005890:	7365636f 	cmnvc	r5, #-1140850687	; 0xbc000001
80005894:	00000a73 	andeq	r0, r0, r3, ror sl
80005898:	494e4150 	stmdbmi	lr, {r4, r6, r8, lr}^
8000589c:	54203a43 	strtpl	r3, [r0], #-2627	; 0xfffff5bd
800058a0:	71206568 			; <UNDEFINED> instruction: 0x71206568
800058a4:	65756575 	ldrbvs	r6, [r5, #-1397]!	; 0xfffffa8b
800058a8:	72612073 	rsbvc	r2, r1, #115	; 0x73
800058ac:	756f2065 	strbvc	r2, [pc, #-101]!	; 8000584f <_roStart+0x84f>
800058b0:	666f2074 			; <UNDEFINED> instruction: 0x666f2074
800058b4:	6e797320 	cdpvs	3, 7, cr7, cr9, cr0, {1}
800058b8:	21212163 			; <UNDEFINED> instruction: 0x21212163
800058bc:	0000000a 	andeq	r0, r0, sl
800058c0:	20656854 	rsbcs	r6, r5, r4, asr r8
800058c4:	72727563 	rsbsvc	r7, r2, #415236096	; 0x18c00000
800058c8:	20746e65 	rsbscs	r6, r4, r5, ror #28
800058cc:	636f7270 	cmnvs	pc, #112, 4
800058d0:	20737365 	rsbscs	r7, r3, r5, ror #6
800058d4:	73207369 			; <UNDEFINED> instruction: 0x73207369
800058d8:	6c6c6974 			; <UNDEFINED> instruction: 0x6c6c6974
800058dc:	65687420 	strbvs	r7, [r8, #-1056]!	; 0xfffffbe0
800058e0:	67696820 	strbvs	r6, [r9, -r0, lsr #16]!
800058e4:	74736568 	ldrbtvc	r6, [r3], #-1384	; 0xfffffa98
800058e8:	69727020 	ldmdbvs	r2!, {r5, ip, sp, lr}^
800058ec:	7469726f 	strbtvc	r7, [r9], #-623	; 0xfffffd91
800058f0:	00000a79 	andeq	r0, r0, r9, ror sl
800058f4:	203a7325 	eorscs	r7, sl, r5, lsr #6
800058f8:	63657845 	cmnvs	r5, #4521984	; 0x450000
800058fc:	6e697475 	mcrvs	4, 3, r7, cr9, cr5, {3}
80005900:	72702067 	rsbsvc	r2, r0, #103	; 0x67
80005904:	7365636f 	cmnvc	r5, #-1140850687	; 0xbc000001
80005908:	77732073 			; <UNDEFINED> instruction: 0x77732073
8000590c:	68637469 	stmdavs	r3!, {r0, r3, r5, r6, sl, ip, sp, lr}^
80005910:	7825203a 	stmdavc	r5!, {r1, r3, r4, r5, sp}
80005914:	0000000a 	andeq	r0, r0, sl
80005918:	636f7250 	cmnvs	pc, #80, 4
8000591c:	57737365 	ldrbpl	r7, [r3, -r5, ror #6]!
80005920:	28746961 	ldmdacs	r4!, {r0, r5, r6, r8, fp, sp, lr}^
80005924:	43203a29 			; <UNDEFINED> instruction: 0x43203a29
80005928:	6b636568 	blvs	818deed0 <_bssEnd+0x189eed0>
8000592c:	0a676e69 	beq	819e12d8 <_bssEnd+0x19a12d8>
80005930:	00000000 	andeq	r0, r0, r0
80005934:	636f7250 	cmnvs	pc, #80, 4
80005938:	57737365 	ldrbpl	r7, [r3, -r5, ror #6]!
8000593c:	28746961 	ldmdacs	r4!, {r0, r5, r6, r8, fp, sp, lr}^
80005940:	50203a29 	eorpl	r3, r0, r9, lsr #20
80005944:	65636f72 	strbvs	r6, [r3, #-3954]!	; 0xfffff08e
80005948:	6c207373 	stcvs	3, cr7, [r0], #-460	; 0xfffffe34
8000594c:	206b636f 	rsbcs	r6, fp, pc, ror #6
80005950:	6174626f 	cmnvs	r4, pc, ror #4
80005954:	64656e69 	strbtvs	r6, [r5], #-3689	; 0xfffff197
80005958:	0000000a 	andeq	r0, r0, sl
8000595c:	636f7250 	cmnvs	pc, #80, 4
80005960:	57737365 	ldrbpl	r7, [r3, -r5, ror #6]!
80005964:	28746961 	ldmdacs	r4!, {r0, r5, r6, r8, fp, sp, lr}^
80005968:	72203a29 	eorvc	r3, r0, #167936	; 0x29000
8000596c:	766f6d65 	strbtvc	r6, [pc], -r5, ror #26
80005970:	66206465 	strtvs	r6, [r0], -r5, ror #8
80005974:	206d6f72 	rsbcs	r6, sp, r2, ror pc
80005978:	64616572 	strbtvs	r6, [r1], #-1394	; 0xfffffa8e
8000597c:	75712079 	ldrbvc	r2, [r1, #-121]!	; 0xffffff87
80005980:	0a657565 	beq	81962f1c <_bssEnd+0x1922f1c>
80005984:	00000000 	andeq	r0, r0, r0
80005988:	636f7250 	cmnvs	pc, #80, 4
8000598c:	57737365 	ldrbpl	r7, [r3, -r5, ror #6]!
80005990:	28746961 	ldmdacs	r4!, {r0, r5, r6, r8, fp, sp, lr}^
80005994:	61203a29 			; <UNDEFINED> instruction: 0x61203a29
80005998:	64656464 	strbtvs	r6, [r5], #-1124	; 0xfffffb9c
8000599c:	206f7420 	rsbcs	r7, pc, r0, lsr #8
800059a0:	74696177 	strbtvc	r6, [r9], #-375	; 0xfffffe89
800059a4:	73696c20 	cmnvc	r9, #32, 24	; 0x2000
800059a8:	00000a74 	andeq	r0, r0, r4, ror sl
800059ac:	636f7250 	cmnvs	pc, #80, 4
800059b0:	57737365 	ldrbpl	r7, [r3, -r5, ror #6]!
800059b4:	28746961 	ldmdacs	r4!, {r0, r5, r6, r8, fp, sp, lr}^
800059b8:	72203a29 	eorvc	r3, r0, #167936	; 0x29000
800059bc:	61656c65 	cmnvs	r5, r5, ror #24
800059c0:	20646573 	rsbcs	r6, r4, r3, ror r5
800059c4:	636f7270 	cmnvs	pc, #112, 4
800059c8:	20737365 	rsbscs	r7, r3, r5, ror #6
800059cc:	6b636f6c 	blvs	818e1784 <_bssEnd+0x18a1784>
800059d0:	0000000a 	andeq	r0, r0, sl
800059d4:	65736552 	ldrbvs	r6, [r3, #-1362]!	; 0xfffffaae
800059d8:	000a3a74 	andeq	r3, sl, r4, ror sl
800059dc:	00007830 	andeq	r7, r0, r0, lsr r8
800059e0:	33323130 	teqcc	r2, #48, 2
800059e4:	37363534 			; <UNDEFINED> instruction: 0x37363534
800059e8:	62613938 	rsbvs	r3, r1, #56, 18	; 0xe0000
800059ec:	66656463 	strbtvs	r6, [r5], -r3, ror #8
800059f0:	00000000 	andeq	r0, r0, r0
800059f4:	65707553 	ldrbvs	r7, [r0, #-1363]!	; 0xfffffaad
800059f8:	73697672 	cmnvc	r9, #119537664	; 0x7200000
800059fc:	5220726f 	eorpl	r7, r0, #-268435450	; 0xf0000006
80005a00:	65757165 	ldrbvs	r7, [r5, #-357]!	; 0xfffffe9b
80005a04:	0a3a7473 	beq	80ea2bd8 <_bssEnd+0xe62bd8>
80005a08:	00000000 	andeq	r0, r0, r0
80005a0c:	0000002e 	andeq	r0, r0, lr, lsr #32
80005a10:	75737349 	ldrbvc	r7, [r3, #-841]!	; 0xfffffcb7
80005a14:	68742065 	ldmdavs	r4!, {r0, r2, r5, r6, sp}^
80005a18:	72702065 	rsbsvc	r2, r0, #101	; 0x65
80005a1c:	7265706f 	rsbvc	r7, r5, #111	; 0x6f
80005a20:	494f4520 	stmdbmi	pc, {r5, r8, sl, lr}^	; <UNPREDICTABLE>
80005a24:	726f6620 	rsbvc	r6, pc, #32, 12	; 0x2000000
80005a28:	69707220 	ldmdbvs	r0!, {r5, r9, ip, sp, lr}^
80005a2c:	68206232 	stmdavs	r0!, {r1, r4, r5, r9, sp, lr}
80005a30:	0a657265 	beq	819623cc <_bssEnd+0x19223cc>
80005a34:	00000000 	andeq	r0, r0, r0
80005a38:	74746553 	ldrbtvc	r6, [r4], #-1363	; 0xfffffaad
80005a3c:	20676e69 	rsbcs	r6, r7, r9, ror #28
80005a40:	20656874 	rsbcs	r6, r5, r4, ror r8
80005a44:	6c616373 	stclvs	3, cr6, [r1], #-460	; 0xfffffe34
80005a48:	76207261 	strtvc	r7, [r0], -r1, ror #4
80005a4c:	65756c61 	ldrbvs	r6, [r5, #-3169]!	; 0xfffff39f
80005a50:	206f7420 	rsbcs	r7, pc, r0, lsr #8
80005a54:	66207825 	strtvs	r7, [r0], -r5, lsr #16
80005a58:	6620726f 	strtvs	r7, [r0], -pc, ror #4
80005a5c:	75716572 	ldrbvc	r6, [r1, #-1394]!	; 0xfffffa8e
80005a60:	79636e65 	stmdbvc	r3!, {r0, r2, r5, r6, r9, sl, fp, sp, lr}^
80005a64:	0a782520 	beq	81e0eeec <_bssEnd+0x1dceeec>
80005a68:	00000000 	andeq	r0, r0, r0
80005a6c:	48727349 	ldmdami	r2!, {r0, r3, r6, r8, r9, ip, sp, lr}^
80005a70:	6c646e61 	stclvs	14, cr6, [r4], #-388	; 0xfffffe7c
80005a74:	72207265 	eorvc	r7, r0, #1342177286	; 0x50000006
80005a78:	73696765 	cmnvc	r9, #26476544	; 0x1940000
80005a7c:	65726574 	ldrbvs	r6, [r2, #-1396]!	; 0xfffffa8c
80005a80:	00000a64 	andeq	r0, r0, r4, ror #20
80005a84:	20746553 	rsbscs	r6, r4, r3, asr r5
80005a88:	20656874 	rsbcs	r6, r5, r4, ror r8
80005a8c:	656d6974 	strbvs	r6, [sp, #-2420]!	; 0xfffff68c
80005a90:	6f722072 	svcvs	0x00722072
80005a94:	6e697475 	mcrvs	4, 3, r7, cr9, cr5, {3}
80005a98:	72662067 	rsbvc	r2, r6, #103	; 0x67
80005a9c:	25206d6f 	strcs	r6, [r0, #-3439]!	; 0xfffff291
80005aa0:	00000a70 	andeq	r0, r0, r0, ror sl
80005aa4:	202e2e2e 	eorcs	r2, lr, lr, lsr #28
80005aa8:	63656863 	cmnvs	r5, #6488064	; 0x630000
80005aac:	676e696b 	strbvs	r6, [lr, -fp, ror #18]!
80005ab0:	65687420 	strbvs	r7, [r8, #-1056]!	; 0xfffffbe0
80005ab4:	64707520 	ldrbtvs	r7, [r0], #-1312	; 0xfffffae0
80005ab8:	3a657461 	bcc	81962c44 <_bssEnd+0x1922c44>
80005abc:	0a702520 	beq	81c0ef44 <_bssEnd+0x1bcef44>
80005ac0:	00000000 	andeq	r0, r0, r0
80005ac4:	656d6954 	strbvs	r6, [sp, #-2388]!	; 0xfffff6ac
80005ac8:	73692072 	cmnvc	r9, #114	; 0x72
80005acc:	696e6920 	stmdbvs	lr!, {r5, r8, fp, sp, lr}^
80005ad0:	6c616974 			; <UNDEFINED> instruction: 0x6c616974
80005ad4:	64657a69 	strbtvs	r7, [r5], #-2665	; 0xfffff597
80005ad8:	0000000a 	andeq	r0, r0, sl
80005adc:	65646e55 	strbvs	r6, [r4, #-3669]!	; 0xfffff1ab
80005ae0:	656e6966 	strbvs	r6, [lr, #-2406]!	; 0xfffff69a
80005ae4:	6e492064 	cdpvs	0, 4, cr2, cr9, cr4, {3}
80005ae8:	75727473 	ldrbvc	r7, [r2, #-1139]!	; 0xfffffb8d
80005aec:	6f697463 	svcvs	0x00697463
80005af0:	000a3a6e 	andeq	r3, sl, lr, ror #20
80005af4:	636c6557 	cmnvs	ip, #364904448	; 0x15c00000
80005af8:	20656d6f 	rsbcs	r6, r5, pc, ror #26
80005afc:	43206f74 			; <UNDEFINED> instruction: 0x43206f74
80005b00:	75746e65 	ldrbvc	r6, [r4, #-3685]!	; 0xfffff19b
80005b04:	534f7972 	movtpl	r7, #63858	; 0xf972
80005b08:	202d2d20 	eorcs	r2, sp, r0, lsr #26
80005b0c:	6f682061 	svcvs	0x00682061
80005b10:	20796262 	rsbscs	r6, r9, r2, ror #4
80005b14:	7265706f 	rsbvc	r7, r5, #111	; 0x6f
80005b18:	6e697461 	cdpvs	4, 6, cr7, cr9, cr1, {3}
80005b1c:	79732067 	ldmdbvc	r3!, {r0, r1, r2, r5, r6, sp}^
80005b20:	6d657473 	cfstrdvs	mvd7, [r5, #-460]!	; 0xfffffe34
80005b24:	0000000a 	andeq	r0, r0, sl
80005b28:	20202020 	eorcs	r2, r0, r0, lsr #32
80005b2c:	696e6928 	stmdbvs	lr!, {r3, r5, r8, fp, sp, lr}^
80005b30:	6c616974 			; <UNDEFINED> instruction: 0x6c616974
80005b34:	6e697a69 	vnmulvs.f32	s15, s18, s19
80005b38:	2e2e2e67 	cdpcs	14, 2, cr2, cr14, cr7, {3}
80005b3c:	00000a29 	andeq	r0, r0, r9, lsr #20
80005b40:	34303423 	ldrtcc	r3, [r0], #-1059	; 0xfffffbdd
80005b44:	00303430 	eorseq	r3, r0, r0, lsr r4
80005b48:	0000002a 	andeq	r0, r0, sl, lsr #32
80005b4c:	33323130 	teqcc	r2, #48, 2
80005b50:	37363534 			; <UNDEFINED> instruction: 0x37363534
80005b54:	62613938 	rsbvs	r3, r1, #56, 18	; 0xe0000
80005b58:	66656463 	strbtvs	r6, [r5], -r3, ror #8
80005b5c:	6a696867 	bvs	81a5fd00 <_bssEnd+0x1a1fd00>
80005b60:	6e6d6c6b 	cdpvs	12, 6, cr6, cr13, cr11, {3}
80005b64:	7271706f 	rsbsvc	r7, r1, #111	; 0x6f
80005b68:	76757473 			; <UNDEFINED> instruction: 0x76757473
80005b6c:	7a797877 	bvc	81e63d50 <_bssEnd+0x1e23d50>
80005b70:	00000000 	andeq	r0, r0, r0
80005b74:	4c554e3c 	mrrcmi	14, 3, r4, r5, cr12
80005b78:	00003e4c 	andeq	r3, r0, ip, asr #28
80005b7c:	33323130 	teqcc	r2, #48, 2
80005b80:	37363534 			; <UNDEFINED> instruction: 0x37363534
80005b84:	42413938 	submi	r3, r1, #56, 18	; 0xe0000
80005b88:	46454443 	strbmi	r4, [r5], -r3, asr #8
80005b8c:	4a494847 	bmi	81257cb0 <_bssEnd+0x1217cb0>
80005b90:	4e4d4c4b 	cdpmi	12, 4, cr4, cr13, cr11, {2}
80005b94:	5251504f 	subspl	r5, r1, #79	; 0x4f
80005b98:	56555453 			; <UNDEFINED> instruction: 0x56555453
80005b9c:	5a595857 	bpl	8165bd00 <_bssEnd+0x161bd00>
80005ba0:	00000000 	andeq	r0, r0, r0

80005ba4 <systemFont>:
	...
80005db4:	08000000 	stmdaeq	r0, {}	; <UNPREDICTABLE>
80005db8:	08080808 	stmdaeq	r8, {r3, fp}
80005dbc:	08080008 	stmdaeq	r8, {r3}
80005dc0:	00000000 	andeq	r0, r0, r0
80005dc4:	14000000 	strne	r0, [r0], #-0
80005dc8:	00141414 	andseq	r1, r4, r4, lsl r4
	...
80005dd4:	48480000 	stmdami	r8, {}^	; <UNPREDICTABLE>
80005dd8:	2424fe68 	strtcs	pc, [r4], #-3688	; 0xfffff198
80005ddc:	1212147f 	andsne	r1, r2, #2130706432	; 0x7f000000
80005de0:	00000000 	andeq	r0, r0, r0
80005de4:	10000000 	andne	r0, r0, r0
80005de8:	1c12927c 	lfmne	f1, 1, [r2], {124}	; 0x7c
80005dec:	7c929070 	ldcvc	0, cr9, [r2], {112}	; 0x70
80005df0:	00001010 	andeq	r1, r0, r0, lsl r0
80005df4:	06000000 	streq	r0, [r0], -r0
80005df8:	38460909 	stmdacc	r6, {r0, r3, r8, fp}^
80005dfc:	60909066 	addsvs	r9, r0, r6, rrx
80005e00:	00000000 	andeq	r0, r0, r0
80005e04:	38000000 	stmdacc	r0, {}	; <UNPREDICTABLE>
80005e08:	920c0404 	andls	r0, ip, #4, 8	; 0x4000000
80005e0c:	bc46a2b2 	sfmlt	f2, 3, [r6], {178}	; 0xb2
80005e10:	00000000 	andeq	r0, r0, r0
80005e14:	08000000 	stmdaeq	r0, {}	; <UNPREDICTABLE>
80005e18:	00080808 	andeq	r0, r8, r8, lsl #16
	...
80005e24:	10103000 	andsne	r3, r0, r0
80005e28:	08080808 	stmdaeq	r8, {r3, fp}
80005e2c:	10100808 	andsne	r0, r0, r8, lsl #16
80005e30:	00000020 	andeq	r0, r0, r0, lsr #32
80005e34:	08080c00 	stmdaeq	r8, {sl, fp}
80005e38:	10101010 	andsne	r1, r0, r0, lsl r0
80005e3c:	08081010 	stmdaeq	r8, {r4, ip}
80005e40:	0000000c 	andeq	r0, r0, ip
80005e44:	10000000 	andne	r0, r0, r0
80005e48:	d6387c92 			; <UNDEFINED> instruction: 0xd6387c92
80005e4c:	00000010 	andeq	r0, r0, r0, lsl r0
	...
80005e58:	7f080808 	svcvc	0x00080808
80005e5c:	00080808 	andeq	r0, r8, r8, lsl #16
	...
80005e6c:	18180000 	ldmdane	r8, {}	; <UNPREDICTABLE>
80005e70:	00000408 	andeq	r0, r0, r8, lsl #8
	...
80005e7c:	0000001c 	andeq	r0, r0, ip, lsl r0
	...
80005e8c:	18180000 	ldmdane	r8, {}	; <UNPREDICTABLE>
80005e90:	00000000 	andeq	r0, r0, r0
80005e94:	40000000 	andmi	r0, r0, r0
80005e98:	10102020 	andsne	r2, r0, r0, lsr #32
80005e9c:	04080818 	streq	r0, [r8], #-2072	; 0xfffff7e8
80005ea0:	00000204 	andeq	r0, r0, r4, lsl #4
80005ea4:	38000000 	stmdacc	r0, {}	; <UNPREDICTABLE>
80005ea8:	92828244 	addls	r8, r2, #68, 4	; 0x40000004
80005eac:	38448282 	stmdacc	r4, {r1, r7, r9, pc}^
80005eb0:	00000000 	andeq	r0, r0, r0
80005eb4:	1c000000 	stcne	0, cr0, [r0], {-0}
80005eb8:	10101010 	andsne	r1, r0, r0, lsl r0
80005ebc:	7c101010 	ldcvc	0, cr1, [r0], {16}
80005ec0:	00000000 	andeq	r0, r0, r0
80005ec4:	7c000000 	stcvc	0, cr0, [r0], {-0}
80005ec8:	408080c2 	addmi	r8, r0, r2, asr #1
80005ecc:	fe041830 	mcr2	8, 0, r1, cr4, cr0, {1}
80005ed0:	00000000 	andeq	r0, r0, r0
80005ed4:	7c000000 	stcvc	0, cr0, [r0], {-0}
80005ed8:	38c08082 	stmiacc	r0, {r1, r7, pc}^
80005edc:	7cc280c0 	stclvc	0, cr8, [r2], {192}	; 0xc0
80005ee0:	00000000 	andeq	r0, r0, r0
80005ee4:	60000000 	andvs	r0, r0, r0
80005ee8:	44485850 	strbmi	r5, [r8], #-2128	; 0xfffff7b0
80005eec:	4040fe42 	submi	pc, r0, r2, asr #28
80005ef0:	00000000 	andeq	r0, r0, r0
80005ef4:	7e000000 	cdpvc	0, 0, cr0, cr0, cr0, {0}
80005ef8:	c03e0202 	eorsgt	r0, lr, r2, lsl #4
80005efc:	3cc28080 	stclcc	0, cr8, [r2], {128}	; 0x80
80005f00:	00000000 	andeq	r0, r0, r0
80005f04:	78000000 	stmdavc	r0, {}	; <UNPREDICTABLE>
80005f08:	c67a0284 	ldrbtgt	r0, [sl], -r4, lsl #5
80005f0c:	78c48282 	stmiavc	r4, {r1, r7, r9, pc}^
80005f10:	00000000 	andeq	r0, r0, r0
80005f14:	fe000000 	cdp2	0, 0, cr0, cr0, cr0, {0}
80005f18:	20204040 	eorcs	r4, r0, r0, asr #32
80005f1c:	04081810 	streq	r1, [r8], #-2064	; 0xfffff7f0
80005f20:	00000000 	andeq	r0, r0, r0
80005f24:	7c000000 	stcvc	0, cr0, [r0], {-0}
80005f28:	7c828282 	sfmvc	f0, 1, [r2], {130}	; 0x82
80005f2c:	7c868282 	sfmvc	f0, 1, [r6], {130}	; 0x82
80005f30:	00000000 	andeq	r0, r0, r0
80005f34:	3c000000 	stccc	0, cr0, [r0], {-0}
80005f38:	c6828246 	strgt	r8, [r2], r6, asr #4
80005f3c:	3c4280bc 	mcrrcc	0, 11, r8, r2, cr12
	...
80005f48:	00181800 	andseq	r1, r8, r0, lsl #16
80005f4c:	18180000 	ldmdane	r8, {}	; <UNPREDICTABLE>
	...
80005f58:	00181800 	andseq	r1, r8, r0, lsl #16
80005f5c:	18180000 	ldmdane	r8, {}	; <UNPREDICTABLE>
80005f60:	00000408 	andeq	r0, r0, r8, lsl #8
80005f64:	00000000 	andeq	r0, r0, r0
80005f68:	0e708000 	cdpeq	0, 7, cr8, cr0, cr0, {0}
80005f6c:	0080700e 	addeq	r7, r0, lr
	...
80005f78:	00fe0000 	rscseq	r0, lr, r0
80005f7c:	0000fe00 	andeq	pc, r0, r0, lsl #28
	...
80005f88:	e01c0200 	ands	r0, ip, r0, lsl #4
80005f8c:	00021ce0 	andeq	r1, r2, r0, ror #25
80005f90:	00000000 	andeq	r0, r0, r0
80005f94:	1c000000 	stcne	0, cr0, [r0], {-0}
80005f98:	08102022 	ldmdaeq	r0, {r1, r5, sp}
80005f9c:	08080008 	stmdaeq	r8, {r3}
80005fa0:	00000000 	andeq	r0, r0, r0
80005fa4:	78000000 	stmdavc	r0, {}	; <UNPREDICTABLE>
80005fa8:	92e284cc 	rscls	r8, r2, #204, 8	; 0xcc000000
80005fac:	04e29292 	strbteq	r9, [r2], #658	; 0x292
80005fb0:	0000780c 	andeq	r7, r0, ip, lsl #16
80005fb4:	10000000 	andne	r0, r0, r0
80005fb8:	44282828 	strtmi	r2, [r8], #-2088	; 0xfffff7d8
80005fbc:	82c67c44 	sbchi	r7, r6, #68, 24	; 0x4400
80005fc0:	00000000 	andeq	r0, r0, r0
80005fc4:	7e000000 	cdpvc	0, 0, cr0, cr0, cr0, {0}
80005fc8:	7e828282 	cdpvc	2, 8, cr8, cr2, cr2, {4}
80005fcc:	7e828282 	cdpvc	2, 8, cr8, cr2, cr2, {4}
80005fd0:	00000000 	andeq	r0, r0, r0
80005fd4:	78000000 	stmdavc	r0, {}	; <UNPREDICTABLE>
80005fd8:	02020284 	andeq	r0, r2, #132, 4	; 0x40000008
80005fdc:	78840202 	stmvc	r4, {r1, r9}
80005fe0:	00000000 	andeq	r0, r0, r0
80005fe4:	3e000000 	cdpcc	0, 0, cr0, cr0, cr0, {0}
80005fe8:	82828242 	addhi	r8, r2, #536870916	; 0x20000004
80005fec:	3e428282 	cdpcc	2, 4, cr8, cr2, cr2, {4}
80005ff0:	00000000 	andeq	r0, r0, r0
80005ff4:	fe000000 	cdp2	0, 0, cr0, cr0, cr0, {0}
80005ff8:	fe020202 	cdp2	2, 0, cr0, cr2, cr2, {0}
80005ffc:	fe020202 	cdp2	2, 0, cr0, cr2, cr2, {0}
80006000:	00000000 	andeq	r0, r0, r0
80006004:	fe000000 	cdp2	0, 0, cr0, cr0, cr0, {0}
80006008:	fe020202 	cdp2	2, 0, cr0, cr2, cr2, {0}
8000600c:	02020202 	andeq	r0, r2, #536870912	; 0x20000000
80006010:	00000000 	andeq	r0, r0, r0
80006014:	78000000 	stmdavc	r0, {}	; <UNPREDICTABLE>
80006018:	c2020284 	andgt	r0, r2, #132, 4	; 0x40000008
8000601c:	78848282 	stmvc	r4, {r1, r7, r9, pc}
80006020:	00000000 	andeq	r0, r0, r0
80006024:	82000000 	andhi	r0, r0, #0
80006028:	fe828282 	cdp2	2, 8, cr8, cr2, cr2, {4}
8000602c:	82828282 	addhi	r8, r2, #536870920	; 0x20000008
80006030:	00000000 	andeq	r0, r0, r0
80006034:	3e000000 	cdpcc	0, 0, cr0, cr0, cr0, {0}
80006038:	08080808 	stmdaeq	r8, {r3, fp}
8000603c:	3e080808 	cdpcc	8, 0, cr0, cr8, cr8, {0}
80006040:	00000000 	andeq	r0, r0, r0
80006044:	38000000 	stmdacc	r0, {}	; <UNPREDICTABLE>
80006048:	20202020 	eorcs	r2, r0, r0, lsr #32
8000604c:	1c222020 	stcne	0, cr2, [r2], #-128	; 0xffffff80
80006050:	00000000 	andeq	r0, r0, r0
80006054:	42000000 	andmi	r0, r0, #0
80006058:	0e0a1222 	cdpeq	2, 0, cr1, cr10, cr2, {1}
8000605c:	42222212 	eormi	r2, r2, #536870913	; 0x20000001
80006060:	00000000 	andeq	r0, r0, r0
80006064:	02000000 	andeq	r0, r0, #0
80006068:	02020202 	andeq	r0, r2, #536870912	; 0x20000000
8000606c:	fe020202 	cdp2	2, 0, cr0, cr2, cr2, {0}
80006070:	00000000 	andeq	r0, r0, r0
80006074:	c6000000 	strgt	r0, [r0], -r0
80006078:	aaaaaac6 	bge	7eab0b98 <ST_CLO+0x3faadb94>
8000607c:	82828292 	addhi	r8, r2, #536870921	; 0x20000009
80006080:	00000000 	andeq	r0, r0, r0
80006084:	86000000 	strhi	r0, [r0], -r0
80006088:	928a8a86 	addls	r8, sl, #548864	; 0x86000
8000608c:	c2c2a2a2 	sbcgt	sl, r2, #536870922	; 0x2000000a
80006090:	00000000 	andeq	r0, r0, r0
80006094:	38000000 	stmdacc	r0, {}	; <UNPREDICTABLE>
80006098:	82828244 	addhi	r8, r2, #68, 4	; 0x40000004
8000609c:	38448282 	stmdacc	r4, {r1, r7, r9, pc}^
800060a0:	00000000 	andeq	r0, r0, r0
800060a4:	7e000000 	cdpvc	0, 0, cr0, cr0, cr0, {0}
800060a8:	c28282c2 	addgt	r8, r2, #536870924	; 0x2000000c
800060ac:	0202027e 	andeq	r0, r2, #-536870905	; 0xe0000007
800060b0:	00000000 	andeq	r0, r0, r0
800060b4:	38000000 	stmdacc	r0, {}	; <UNPREDICTABLE>
800060b8:	82828244 	addhi	r8, r2, #68, 4	; 0x40000004
800060bc:	78448282 	stmdavc	r4, {r1, r7, r9, pc}^
800060c0:	00004060 	andeq	r4, r0, r0, rrx
800060c4:	7e000000 	cdpvc	0, 0, cr0, cr0, cr0, {0}
800060c8:	7e8282c2 	cdpvc	2, 8, cr8, cr2, cr2, {6}
800060cc:	02828242 	addeq	r8, r2, #536870916	; 0x20000004
800060d0:	00000000 	andeq	r0, r0, r0
800060d4:	7c000000 	stcvc	0, cr0, [r0], {-0}
800060d8:	7c060286 	sfmvc	f0, 4, [r6], {134}	; 0x86
800060dc:	7dc280c0 	stclvc	0, cr8, [r2, #768]	; 0x300
800060e0:	00000000 	andeq	r0, r0, r0
800060e4:	7f000000 	svcvc	0x00000000
800060e8:	08080808 	stmdaeq	r8, {r3, fp}
800060ec:	08080808 	stmdaeq	r8, {r3, fp}
800060f0:	00000000 	andeq	r0, r0, r0
800060f4:	82000000 	andhi	r0, r0, #0
800060f8:	82828282 	addhi	r8, r2, #536870920	; 0x20000008
800060fc:	7c828282 	sfmvc	f0, 1, [r2], {130}	; 0x82
80006100:	00000000 	andeq	r0, r0, r0
80006104:	82000000 	andhi	r0, r0, #0
80006108:	444444c6 	strbmi	r4, [r4], #-1222	; 0xfffffb3a
8000610c:	10282828 	eorne	r2, r8, r8, lsr #16
80006110:	00000000 	andeq	r0, r0, r0
80006114:	81000000 	mrshi	r0, (UNDEF: 0)
80006118:	5a5a8181 	bpl	816a6724 <_bssEnd+0x1666724>
8000611c:	6666665a 			; <UNDEFINED> instruction: 0x6666665a
80006120:	00000000 	andeq	r0, r0, r0
80006124:	c6000000 	strgt	r0, [r0], -r0
80006128:	10382844 	eorsne	r2, r8, r4, asr #16
8000612c:	82446c28 	subhi	r6, r4, #40, 24	; 0x2800
80006130:	00000000 	andeq	r0, r0, r0
80006134:	41000000 	mrsmi	r0, (UNDEF: 0)
80006138:	08141422 	ldmdaeq	r4, {r1, r5, sl, ip}
8000613c:	08080808 	stmdaeq	r8, {r3, fp}
80006140:	00000000 	andeq	r0, r0, r0
80006144:	fe000000 	cdp2	0, 0, cr0, cr0, cr0, {0}
80006148:	102060c0 	eorne	r6, r0, r0, asr #1
8000614c:	fe060c08 	cdp2	12, 0, cr0, cr6, cr8, {0}
80006150:	00000000 	andeq	r0, r0, r0
80006154:	08083800 	stmdaeq	r8, {fp, ip, sp}
80006158:	08080808 	stmdaeq	r8, {r3, fp}
8000615c:	08080808 	stmdaeq	r8, {r3, fp}
80006160:	00000038 	andeq	r0, r0, r8, lsr r0
80006164:	02000000 	andeq	r0, r0, #0
80006168:	08080404 	stmdaeq	r8, {r2, sl}
8000616c:	20101018 	andscs	r1, r0, r8, lsl r0
80006170:	00004020 	andeq	r4, r0, r0, lsr #32
80006174:	10101c00 	andsne	r1, r0, r0, lsl #24
80006178:	10101010 	andsne	r1, r0, r0, lsl r0
8000617c:	10101010 	andsne	r1, r0, r0, lsl r0
80006180:	0000001c 	andeq	r0, r0, ip, lsl r0
80006184:	08000000 	stmdaeq	r0, {}	; <UNPREDICTABLE>
80006188:	00632214 	rsbeq	r2, r3, r4, lsl r2
	...
800061a0:	007f0000 	rsbseq	r0, pc, r0
800061a4:	10080000 	andne	r0, r8, r0
	...
800061b8:	40443800 	submi	r3, r4, r0, lsl #16
800061bc:	5c62427c 	sfmpl	f4, 2, [r2], #-496	; 0xfffffe10
800061c0:	00000000 	andeq	r0, r0, r0
800061c4:	02020200 	andeq	r0, r2, #0, 4
800061c8:	42663e02 	rsbmi	r3, r6, #2, 28
800061cc:	3e664242 	cdpcc	2, 6, cr4, cr6, cr2, {2}
	...
800061d8:	02443800 	subeq	r3, r4, #0, 16
800061dc:	38440202 	stmdacc	r4, {r1, r9}^
800061e0:	00000000 	andeq	r0, r0, r0
800061e4:	40404000 	submi	r4, r0, r0
800061e8:	42667c40 	rsbmi	r7, r6, #64, 24	; 0x4000
800061ec:	7c664242 	sfmvc	f4, 2, [r6], #-264	; 0xfffffef8
	...
800061f8:	42663c00 	rsbmi	r3, r6, #0, 24
800061fc:	3c46027e 	sfmcc	f0, 2, [r6], {126}	; 0x7e
80006200:	00000000 	andeq	r0, r0, r0
80006204:	08083000 	stmdaeq	r8, {ip, sp}
80006208:	08083e08 	stmdaeq	r8, {r3, r9, sl, fp, ip, sp}
8000620c:	08080808 	stmdaeq	r8, {r3, fp}
	...
80006218:	42667c00 	rsbmi	r7, r6, #0, 24
8000621c:	5c664242 	sfmpl	f4, 2, [r6], #-264	; 0xfffffef8
80006220:	00384440 	eorseq	r4, r8, r0, asr #8
80006224:	02020200 	andeq	r0, r2, #0, 4
80006228:	42463a02 	submi	r3, r6, #8192	; 0x2000
8000622c:	42424242 	submi	r4, r2, #536870916	; 0x20000004
80006230:	00000000 	andeq	r0, r0, r0
80006234:	00000800 	andeq	r0, r0, r0, lsl #16
80006238:	08080e00 	stmdaeq	r8, {r9, sl, fp}
8000623c:	3e080808 	cdpcc	8, 0, cr0, cr8, cr8, {0}
80006240:	00000000 	andeq	r0, r0, r0
80006244:	00001000 	andeq	r1, r0, r0
80006248:	10101c00 	andsne	r1, r0, r0, lsl #24
8000624c:	10101010 	andsne	r1, r0, r0, lsl r0
80006250:	000e1010 	andeq	r1, lr, r0, lsl r0
80006254:	02020200 	andeq	r0, r2, #0, 4
80006258:	0a122202 	beq	8048ea68 <_bssEnd+0x44ea68>
8000625c:	4222120e 	eormi	r1, r2, #-536870912	; 0xe0000000
80006260:	00000000 	andeq	r0, r0, r0
80006264:	08080e00 	stmdaeq	r8, {r9, sl, fp}
80006268:	08080808 	stmdaeq	r8, {r3, fp}
8000626c:	70080808 	andvc	r0, r8, r8, lsl #16
	...
80006278:	9292fe00 	addsls	pc, r2, #0, 28
8000627c:	92929292 	addsls	r9, r2, #536870921	; 0x20000009
	...
80006288:	42463a00 	submi	r3, r6, #0, 20
8000628c:	42424242 	submi	r4, r2, #536870916	; 0x20000004
	...
80006298:	42663c00 	rsbmi	r3, r6, #0, 24
8000629c:	3c664242 	sfmcc	f4, 2, [r6], #-264	; 0xfffffef8
	...
800062a8:	42663e00 	rsbmi	r3, r6, #0, 28
800062ac:	3e664242 	cdpcc	2, 6, cr4, cr6, cr2, {2}
800062b0:	00020202 	andeq	r0, r2, r2, lsl #4
800062b4:	00000000 	andeq	r0, r0, r0
800062b8:	42667c00 	rsbmi	r7, r6, #0, 24
800062bc:	5c664242 	sfmpl	f4, 2, [r6], #-264	; 0xfffffef8
800062c0:	00404040 	subeq	r4, r0, r0, asr #32
800062c4:	00000000 	andeq	r0, r0, r0
800062c8:	044c3c00 	strbeq	r3, [ip], #-3072	; 0xfffff400
800062cc:	04040404 	streq	r0, [r4], #-1028	; 0xfffffbfc
	...
800062d8:	02423c00 	subeq	r3, r2, #0, 24
800062dc:	3c42403c 	mcrrcc	0, 3, r4, r2, cr12
800062e0:	00000000 	andeq	r0, r0, r0
800062e4:	08000000 	stmdaeq	r0, {}	; <UNPREDICTABLE>
800062e8:	08087e08 	stmdaeq	r8, {r3, r9, sl, fp, ip, sp, lr}
800062ec:	70080808 	andvc	r0, r8, r8, lsl #16
	...
800062f8:	42424200 	submi	r4, r2, #0, 4
800062fc:	5c624242 	sfmpl	f4, 2, [r2], #-264	; 0xfffffef8
	...
80006308:	24664200 	strbtcs	r4, [r6], #-512	; 0xfffffe00
8000630c:	18183c24 	ldmdane	r8, {r2, r5, sl, fp, ip, sp}
	...
80006318:	5a818100 	bpl	7e066720 <ST_CLO+0x3f06371c>
8000631c:	24245a5a 	strtcs	r5, [r4], #-2650	; 0xfffff5a6
	...
80006328:	18246600 	stmdane	r4!, {r9, sl, sp, lr}
8000632c:	66241818 			; <UNDEFINED> instruction: 0x66241818
	...
80006338:	24444200 	strbcs	r4, [r4], #-512	; 0xfffffe00
8000633c:	10182824 	andsne	r2, r8, r4, lsr #16
80006340:	000c0810 	andeq	r0, ip, r0, lsl r8
80006344:	00000000 	andeq	r0, r0, r0
80006348:	20407e00 	subcs	r7, r0, r0, lsl #28
8000634c:	7e020418 	cfmvdlrvc	mvd2, r0
80006350:	00000000 	andeq	r0, r0, r0
80006354:	08083800 	stmdaeq	r8, {fp, ip, sp}
80006358:	08060808 	stmdaeq	r6, {r3, fp}
8000635c:	08080808 	stmdaeq	r8, {r3, fp}
80006360:	00000030 	andeq	r0, r0, r0, lsr r0
80006364:	08080800 	stmdaeq	r8, {fp}
80006368:	08080808 	stmdaeq	r8, {r3, fp}
8000636c:	08080808 	stmdaeq	r8, {r3, fp}
80006370:	00000808 	andeq	r0, r0, r8, lsl #16
80006374:	08080e00 	stmdaeq	r8, {r9, sl, fp}
80006378:	08300808 	ldmdaeq	r0!, {r3, fp}
8000637c:	08080808 	stmdaeq	r8, {r3, fp}
80006380:	00000006 	andeq	r0, r0, r6
80006384:	00000000 	andeq	r0, r0, r0
80006388:	9c000000 	stcls	0, cr0, [r0], {-0}
8000638c:	00000062 	andeq	r0, r0, r2, rrx
80006390:	00000000 	andeq	r0, r0, r0
80006394:	ffffffff 			; <UNDEFINED> instruction: 0xffffffff
80006398:	ffffffff 			; <UNDEFINED> instruction: 0xffffffff
8000639c:	ffffffff 			; <UNDEFINED> instruction: 0xffffffff
800063a0:	ffffffff 			; <UNDEFINED> instruction: 0xffffffff

Disassembly of section .stab:

80007000 <_roEnd>:
	...

Disassembly of section .data:

80008000 <heapStart>:
80008000:	d0000000 	andle	r0, r0, r0

80008004 <kHeap>:
80008004:	8000a000 	andhi	sl, r0, r0

80008008 <exceptVect>:
80008008:	ff401000 			; <UNDEFINED> instruction: 0xff401000

8000800c <pmmProcess>:
	...
80008018:	00000002 	andeq	r0, r0, r2
8000801c:	80000000 	andhi	r0, r0, r0
80008020:	00001000 	andeq	r1, r0, r0
80008024:	006d6d70 	rsbeq	r6, sp, r0, ror sp
	...
8000804c:	0000001e 	andeq	r0, r0, lr, lsl r0
	...

8000808c <_ZZ13ProcessNewPIDvE7lastPID>:
8000808c:	00008000 	andeq	r8, r0, r0

80008090 <procReaper>:
80008090:	80008090 	mulhi	r0, r0, r0
80008094:	80008090 	mulhi	r0, r0, r0
	...

800080a0 <procHeldList>:
800080a0:	800080a0 	andhi	r8, r0, r0, lsr #1
800080a4:	800080a0 	andhi	r8, r0, r0, lsr #1
	...

800080b0 <procWaitList>:
800080b0:	800080b0 	strhhi	r8, [r0], -r0
800080b4:	800080b0 	strhhi	r8, [r0], -r0
	...

800080c0 <butler>:
	...
800080cc:	00000001 	andeq	r0, r0, r1
800080d0:	001ff000 	andseq	pc, pc, r0
800080d4:	00001000 	andeq	r1, r0, r0
800080d8:	6c747542 	cfldr64vs	mvdx7, [r4], #-264	; 0xfffffef8
800080dc:	00007265 	andeq	r7, r0, r5, ror #4
	...
800080fc:	00000001 	andeq	r0, r0, r1
80008100:	0000001e 	andeq	r0, r0, lr, lsl r0
	...

80008140 <idleProcess>:
	...
80008150:	8001f404 	andhi	pc, r1, r4, lsl #8
80008154:	00000800 	andeq	r0, r0, r0, lsl #16
80008158:	656c6449 	strbvs	r6, [ip, #-1097]!	; 0xfffffbb7
	...
8000817c:	00000001 	andeq	r0, r0, r1
80008180:	00000001 	andeq	r0, r0, r1
	...

800081c0 <procIdlePtyList>:
800081c0:	800081c0 	andhi	r8, r0, r0, asr #3
800081c4:	800081c0 	andhi	r8, r0, r0, asr #3
	...

800081d0 <procLowPtyList>:
800081d0:	800081d0 	ldrdhi	r8, [r0], -r0
800081d4:	800081d0 	ldrdhi	r8, [r0], -r0
	...

800081e0 <procNormPtyList>:
800081e0:	800081e0 	andhi	r8, r0, r0, ror #3
800081e4:	800081e0 	andhi	r8, r0, r0, ror #3
	...

800081f0 <procHighPtyList>:
800081f0:	800081f0 	strdhi	r8, [r0], -r0
800081f4:	800081f0 	strdhi	r8, [r0], -r0
	...

80008200 <procOsPtyList>:
80008200:	80008200 	andhi	r8, r0, r0, lsl #4
80008204:	80008200 	andhi	r8, r0, r0, lsl #4
	...

80008210 <pitTimer>:
80008210:	80003ea0 	andhi	r3, r0, r0, lsr #29
80008214:	80003e8c 	andhi	r3, r0, ip, lsl #29

80008218 <localHwDisc>:
80008218:	00003000 	andeq	r3, r0, r0

8000821c <serialPort>:
8000821c:	Address 0x000000008000821c is out of bounds.


Disassembly of section .bss:

80009000 <exceptionStack>:
	...

80009200 <heapLock>:
	...

8000a000 <_ZL5_heap>:
	...

8000a020 <fixedListUsed>:
8000a020:	00000000 	andeq	r0, r0, r0

8000a024 <fixedList>:
	...

8000f000 <heapMemoryBlock>:
	...

8001f000 <isrHandlers>:
	...

8001f400 <ProcessEnabled>:
8001f400:	00000000 	andeq	r0, r0, r0

8001f404 <idleStack>:
	...

8001fc04 <pidTableLock>:
	...

8001fc0c <procs>:
	...

8003fc0c <currentPID>:
8003fc0c:	00000000 	andeq	r0, r0, r0

8003fc10 <timerControl>:
8003fc10:	00000000 	andeq	r0, r0, r0

Disassembly of section .ARM.attributes:

00000000 <.ARM.attributes>:
   0:	00003e41 	andeq	r3, r0, r1, asr #28
   4:	61656100 	cmnvs	r5, r0, lsl #2
   8:	01006962 	tsteq	r0, r2, ror #18
   c:	00000034 	andeq	r0, r0, r4, lsr r0
  10:	726f4305 	rsbvc	r4, pc, #335544320	; 0x14000000
  14:	2d786574 	cfldr64cs	mvdx6, [r8, #-464]!	; 0xfffffe30
  18:	06003741 	streq	r3, [r0], -r1, asr #14
  1c:	0841070a 	stmdaeq	r1, {r1, r3, r8, r9, sl}^
  20:	0a020901 	beq	8242c <PROC_CR3+0x82424>
  24:	12020c05 	andne	r0, r2, #1280	; 0x500
  28:	15011404 	strne	r1, [r1, #-1028]	; 0xfffffbfc
  2c:	18031701 	stmdane	r3, {r0, r8, r9, sl, ip}
  30:	1c021a01 			; <UNDEFINED> instruction: 0x1c021a01
  34:	22021e01 	andcs	r1, r2, #1, 28
  38:	2c012a01 			; <UNDEFINED> instruction: 0x2c012a01
  3c:	Address 0x000000000000003c is out of bounds.

