
/home/adam/workspace/century-os/bin/rpi2b/boot/rpi-timer.elf:     file format elf32-littlearm


Disassembly of section .text:

00008000 <_start>:
    8000:	e10f0000 	mrs	r0, CPSR
    8004:	e200001f 	and	r0, r0, #31
    8008:	e350001a 	cmp	r0, #26
    800c:	0a000001 	beq	8018 <hyp>
    8010:	f10e01d3 	cpsid	aif,#19
    8014:	ea000007 	b	8038 <cont>

00008018 <hyp>:
    8018:	e10f0000 	mrs	r0, CPSR
    801c:	e3c0001f 	bic	r0, r0, #31
    8020:	e3800013 	orr	r0, r0, #19
    8024:	e3800d07 	orr	r0, r0, #448	; 0x1c0
    8028:	e16ff000 	msr	SPSR_fsxc, r0
    802c:	e59f002c 	ldr	r0, [pc, #44]	; 8060 <initialize+0xc>
    8030:	e12ef300 	msr	ELR_hyp, r0
    8034:	e160006e 	eret

00008038 <cont>:
    8038:	e3a0d902 	mov	sp, #32768	; 0x8000
    803c:	ee103fb0 	mrc	15, 0, r3, cr0, cr0, {5}
    8040:	e2033003 	and	r3, r3, #3
    8044:	e3530000 	cmp	r3, #0
    8048:	0a000001 	beq	8054 <initialize>

0000804c <wait_loop>:
    804c:	e320f003 	wfi
    8050:	eafffffd 	b	804c <wait_loop>

00008054 <initialize>:
    8054:	e59f0008 	ldr	r0, [pc, #8]	; 8064 <initialize+0x10>
    8058:	ee0c0f10 	mcr	15, 0, r0, cr12, cr0, {0}
    805c:	eb0000aa 	bl	830c <TimerMain>
    8060:	00008038 	andeq	r8, r0, r8, lsr r0
    8064:	00008780 	andeq	r8, r0, r0, lsl #15

00008068 <DisableInterrupts>:
    8068:	e52d1004 	push	{r1}		; (str r1, [sp, #-4]!)
    806c:	e10f1000 	mrs	r1, CPSR
    8070:	e1a00001 	mov	r0, r1
    8074:	e2000d07 	and	r0, r0, #448	; 0x1c0
    8078:	e3811d07 	orr	r1, r1, #448	; 0x1c0
    807c:	e129f001 	msr	CPSR_fc, r1
    8080:	e49d1004 	pop	{r1}		; (ldr r1, [sp], #4)
    8084:	e1a0f00e 	mov	pc, lr

00008088 <EnableInterrupts>:
    8088:	e10f0000 	mrs	r0, CPSR
    808c:	e3c00d07 	bic	r0, r0, #448	; 0x1c0
    8090:	e129f000 	msr	CPSR_fc, r0
    8094:	e1a0f00e 	mov	pc, lr

00008098 <GetCBAR>:
    8098:	ee9f0f10 	mrc	15, 4, r0, cr15, cr0, {0}
    809c:	e1a0f00e 	mov	pc, lr

000080a0 <GetVBAR>:
    80a0:	ee1c0f10 	mrc	15, 0, r0, cr12, cr0, {0}
    80a4:	e1a0f00e 	mov	pc, lr

000080a8 <GetSCTLR>:
    80a8:	ee110f10 	mrc	15, 0, r0, cr1, cr0, {0}
    80ac:	e1a0f00e 	mov	pc, lr

000080b0 <GetMode>:
    80b0:	e10f0000 	mrs	r0, CPSR
    80b4:	e200001f 	and	r0, r0, #31
    80b8:	e1a0f00e 	mov	pc, lr

000080bc <Undef>:
    80bc:	ffffffff 			; <UNDEFINED> instruction: 0xffffffff

000080c0 <IRQTarget>:
    80c0:	e24ee004 	sub	lr, lr, #4
    80c4:	f96d0513 	srsdb	sp!, #19
    80c8:	f10e01d3 	cpsid	aif,#19
    80cc:	e92d1fff 	push	{r0, r1, r2, r3, r4, r5, r6, r7, r8, r9, sl, fp, ip}
    80d0:	eb000082 	bl	82e0 <IRQHandler>
    80d4:	e8bd1fff 	pop	{r0, r1, r2, r3, r4, r5, r6, r7, r8, r9, sl, fp, ip}
    80d8:	f8bd0a00 	rfeia	sp!

000080dc <SysTimerCount>:
    80dc:	e59f0004 	ldr	r0, [pc, #4]	; 80e8 <SysTimerCount+0xc>
    80e0:	e1c000d0 	ldrd	r0, [r0]
    80e4:	e1a0f00e 	mov	pc, lr
    80e8:	3f003004 	svccc	0x00003004

000080ec <SerialPutChar>:
    80ec:	e350000a 	cmp	r0, #10
    80f0:	e92d4010 	push	{r4, lr}
    80f4:	e1a04000 	mov	r4, r0
    80f8:	0a000006 	beq	8118 <SerialPutChar+0x2c>
    80fc:	e3a02a05 	mov	r2, #20480	; 0x5000
    8100:	e3432f21 	movt	r2, #16161	; 0x3f21
    8104:	e5923054 	ldr	r3, [r2, #84]	; 0x54
    8108:	e3130020 	tst	r3, #32
    810c:	0afffffc 	beq	8104 <SerialPutChar+0x18>
    8110:	e5824040 	str	r4, [r2, #64]	; 0x40
    8114:	e8bd8010 	pop	{r4, pc}
    8118:	e3a0000d 	mov	r0, #13
    811c:	ebfffff2 	bl	80ec <SerialPutChar>
    8120:	eafffff5 	b	80fc <SerialPutChar+0x10>

00008124 <_Z10SerialPutSPKc>:
    8124:	e92d4070 	push	{r4, r5, r6, lr}
    8128:	e5d04000 	ldrb	r4, [r0]
    812c:	e3540000 	cmp	r4, #0
    8130:	08bd8070 	popeq	{r4, r5, r6, pc}
    8134:	e354000a 	cmp	r4, #10
    8138:	e3a01a05 	mov	r1, #20480	; 0x5000
    813c:	e3431f21 	movt	r1, #16161	; 0x3f21
    8140:	e1a05000 	mov	r5, r0
    8144:	0a000008 	beq	816c <_Z10SerialPutSPKc+0x48>
    8148:	e5913054 	ldr	r3, [r1, #84]	; 0x54
    814c:	e3130020 	tst	r3, #32
    8150:	0afffffc 	beq	8148 <_Z10SerialPutSPKc+0x24>
    8154:	e5814040 	str	r4, [r1, #64]	; 0x40
    8158:	e5f54001 	ldrb	r4, [r5, #1]!
    815c:	e3540000 	cmp	r4, #0
    8160:	08bd8070 	popeq	{r4, r5, r6, pc}
    8164:	e354000a 	cmp	r4, #10
    8168:	1afffff6 	bne	8148 <_Z10SerialPutSPKc+0x24>
    816c:	e3a0000d 	mov	r0, #13
    8170:	ebffffdd 	bl	80ec <SerialPutChar>
    8174:	eafffff3 	b	8148 <_Z10SerialPutSPKc+0x24>

00008178 <_Z12SerialPutHexj>:
    8178:	e308c7b0 	movw	ip, #34736	; 0x87b0
    817c:	e340c000 	movt	ip, #0
    8180:	e92d4070 	push	{r4, r5, r6, lr}
    8184:	e1a06000 	mov	r6, r0
    8188:	e24dd018 	sub	sp, sp, #24
    818c:	e3a04a05 	mov	r4, #20480	; 0x5000
    8190:	e8bc000f 	ldm	ip!, {r0, r1, r2, r3}
    8194:	e3434f21 	movt	r4, #16161	; 0x3f21
    8198:	e28de004 	add	lr, sp, #4
    819c:	e59cc000 	ldr	ip, [ip]
    81a0:	e3a0501c 	mov	r5, #28
    81a4:	e8ae000f 	stmia	lr!, {r0, r1, r2, r3}
    81a8:	e30807ac 	movw	r0, #34732	; 0x87ac
    81ac:	e3400000 	movt	r0, #0
    81b0:	e5cec000 	strb	ip, [lr]
    81b4:	ebffffda 	bl	8124 <_Z10SerialPutSPKc>
    81b8:	e1a03536 	lsr	r3, r6, r5
    81bc:	e28d2018 	add	r2, sp, #24
    81c0:	e203300f 	and	r3, r3, #15
    81c4:	e0823003 	add	r3, r2, r3
    81c8:	e5531014 	ldrb	r1, [r3, #-20]	; 0xffffffec
    81cc:	e351000a 	cmp	r1, #10
    81d0:	0a000008 	beq	81f8 <_Z12SerialPutHexj+0x80>
    81d4:	e5943054 	ldr	r3, [r4, #84]	; 0x54
    81d8:	e3130020 	tst	r3, #32
    81dc:	0afffffc 	beq	81d4 <_Z12SerialPutHexj+0x5c>
    81e0:	e5841040 	str	r1, [r4, #64]	; 0x40
    81e4:	e2455004 	sub	r5, r5, #4
    81e8:	e3750004 	cmn	r5, #4
    81ec:	1afffff1 	bne	81b8 <_Z12SerialPutHexj+0x40>
    81f0:	e28dd018 	add	sp, sp, #24
    81f4:	e8bd8070 	pop	{r4, r5, r6, pc}
    81f8:	e3a0000d 	mov	r0, #13
    81fc:	ebffffba 	bl	80ec <SerialPutChar>
    8200:	eafffff3 	b	81d4 <_Z12SerialPutHexj+0x5c>

00008204 <_Z8BusyWaitj>:
    8204:	e92d4070 	push	{r4, r5, r6, lr}
    8208:	e2505000 	subs	r5, r0, #0
    820c:	08bd8070 	popeq	{r4, r5, r6, pc}
    8210:	e3a04000 	mov	r4, #0
    8214:	e2844001 	add	r4, r4, #1
    8218:	eb000152 	bl	8768 <Dummy>
    821c:	e1550004 	cmp	r5, r4
    8220:	1afffffb 	bne	8214 <_Z8BusyWaitj+0x10>
    8224:	e8bd8070 	pop	{r4, r5, r6, pc}

00008228 <_Z10SerialInitv>:
    8228:	e3a03a05 	mov	r3, #20480	; 0x5000
    822c:	e3a01000 	mov	r1, #0
    8230:	e3433f21 	movt	r3, #16161	; 0x3f21
    8234:	e3a00001 	mov	r0, #1
    8238:	e3431f20 	movt	r1, #16160	; 0x3f20
    823c:	e3a02000 	mov	r2, #0
    8240:	e92d4010 	push	{r4, lr}
    8244:	e3a0c0c6 	mov	ip, #198	; 0xc6
    8248:	e5830004 	str	r0, [r3, #4]
    824c:	e3a0e003 	mov	lr, #3
    8250:	e5832044 	str	r2, [r3, #68]	; 0x44
    8254:	e300010e 	movw	r0, #270	; 0x10e
    8258:	e5832060 	str	r2, [r3, #96]	; 0x60
    825c:	e3a04096 	mov	r4, #150	; 0x96
    8260:	e583e04c 	str	lr, [r3, #76]	; 0x4c
    8264:	e5832050 	str	r2, [r3, #80]	; 0x50
    8268:	e5832044 	str	r2, [r3, #68]	; 0x44
    826c:	e583c048 	str	ip, [r3, #72]	; 0x48
    8270:	e5830068 	str	r0, [r3, #104]	; 0x68
    8274:	e5913004 	ldr	r3, [r1, #4]
    8278:	e3c33a07 	bic	r3, r3, #28672	; 0x7000
    827c:	e3833a02 	orr	r3, r3, #8192	; 0x2000
    8280:	e5813004 	str	r3, [r1, #4]
    8284:	e5812094 	str	r2, [r1, #148]	; 0x94
    8288:	eb000136 	bl	8768 <Dummy>
    828c:	e2544001 	subs	r4, r4, #1
    8290:	1afffffc 	bne	8288 <_Z10SerialInitv+0x60>
    8294:	e3a03000 	mov	r3, #0
    8298:	e3a04096 	mov	r4, #150	; 0x96
    829c:	e3433f20 	movt	r3, #16160	; 0x3f20
    82a0:	e3a02901 	mov	r2, #16384	; 0x4000
    82a4:	e5832098 	str	r2, [r3, #152]	; 0x98
    82a8:	eb00012e 	bl	8768 <Dummy>
    82ac:	e2544001 	subs	r4, r4, #1
    82b0:	1afffffc 	bne	82a8 <_Z10SerialInitv+0x80>
    82b4:	e3a02000 	mov	r2, #0
    82b8:	e3a03a05 	mov	r3, #20480	; 0x5000
    82bc:	e3432f20 	movt	r2, #16160	; 0x3f20
    82c0:	e3a01002 	mov	r1, #2
    82c4:	e3433f21 	movt	r3, #16161	; 0x3f21
    82c8:	e30807c4 	movw	r0, #34756	; 0x87c4
    82cc:	e5824098 	str	r4, [r2, #152]	; 0x98
    82d0:	e3400000 	movt	r0, #0
    82d4:	e5831060 	str	r1, [r3, #96]	; 0x60
    82d8:	e8bd4010 	pop	{r4, lr}
    82dc:	eaffff90 	b	8124 <_Z10SerialPutSPKc>

000082e0 <IRQHandler>:
    82e0:	e3a02a05 	mov	r2, #20480	; 0x5000
    82e4:	e3432f21 	movt	r2, #16161	; 0x3f21
    82e8:	e5923054 	ldr	r3, [r2, #84]	; 0x54
    82ec:	e3130020 	tst	r3, #32
    82f0:	0afffffc 	beq	82e8 <IRQHandler+0x8>
    82f4:	e3a03101 	mov	r3, #1073741824	; 0x40000000
    82f8:	e3a01021 	mov	r1, #33	; 0x21
    82fc:	e5821040 	str	r1, [r2, #64]	; 0x40
    8300:	e3a02103 	mov	r2, #-1073741824	; 0xc0000000
    8304:	e5832038 	str	r2, [r3, #56]	; 0x38
    8308:	e12fff1e 	bx	lr

0000830c <TimerMain>:
    830c:	e92d40f0 	push	{r4, r5, r6, r7, lr}
    8310:	e24dd00c 	sub	sp, sp, #12
    8314:	e3a04102 	mov	r4, #-2147483648	; 0x80000000
    8318:	ebffff52 	bl	8068 <DisableInterrupts>
    831c:	e3a05103 	mov	r5, #-1073741824	; 0xc0000000
    8320:	ebffffc0 	bl	8228 <_Z10SerialInitv>
    8324:	e3a02a0b 	mov	r2, #45056	; 0xb000
    8328:	e3a03101 	mov	r3, #1073741824	; 0x40000000
    832c:	e3432f00 	movt	r2, #16128	; 0x3f00
    8330:	e3a01000 	mov	r1, #0
    8334:	e3e00000 	mvn	r0, #0
    8338:	e3a0c000 	mov	ip, #0
    833c:	e582120c 	str	r1, [r2, #524]	; 0x20c
    8340:	e3a0e002 	mov	lr, #2
    8344:	e5820224 	str	r0, [r2, #548]	; 0x224
    8348:	e343c020 	movt	ip, #12320	; 0x3020
    834c:	e582021c 	str	r0, [r2, #540]	; 0x21c
    8350:	e5820220 	str	r0, [r2, #544]	; 0x220
    8354:	e30807f0 	movw	r0, #34800	; 0x87f0
    8358:	e5831000 	str	r1, [r3]
    835c:	e5834008 	str	r4, [r3, #8]
    8360:	e3a04001 	mov	r4, #1
    8364:	e583e040 	str	lr, [r3, #64]	; 0x40
    8368:	e3400000 	movt	r0, #0
    836c:	e583e060 	str	lr, [r3, #96]	; 0x60
    8370:	e5831070 	str	r1, [r3, #112]	; 0x70
    8374:	e583c034 	str	ip, [r3, #52]	; 0x34
    8378:	e5835038 	str	r5, [r3, #56]	; 0x38
    837c:	e5831024 	str	r1, [r3, #36]	; 0x24
    8380:	e5824218 	str	r4, [r2, #536]	; 0x218
    8384:	ebffff66 	bl	8124 <_Z10SerialPutSPKc>
    8388:	e3080810 	movw	r0, #34832	; 0x8810
    838c:	e3400000 	movt	r0, #0
    8390:	ebffff63 	bl	8124 <_Z10SerialPutSPKc>
    8394:	e3080834 	movw	r0, #34868	; 0x8834
    8398:	e3400000 	movt	r0, #0
    839c:	ebffff60 	bl	8124 <_Z10SerialPutSPKc>
    83a0:	ebffff42 	bl	80b0 <GetMode>
    83a4:	ebffff73 	bl	8178 <_Z12SerialPutHexj>
    83a8:	e3a0000d 	mov	r0, #13
    83ac:	ebffff4e 	bl	80ec <SerialPutChar>
    83b0:	e3a03a05 	mov	r3, #20480	; 0x5000
    83b4:	e3433f21 	movt	r3, #16161	; 0x3f21
    83b8:	e5932054 	ldr	r2, [r3, #84]	; 0x54
    83bc:	e3120020 	tst	r2, #32
    83c0:	0afffffc 	beq	83b8 <TimerMain+0xac>
    83c4:	e3a0200a 	mov	r2, #10
    83c8:	e308084c 	movw	r0, #34892	; 0x884c
    83cc:	e5832040 	str	r2, [r3, #64]	; 0x40
    83d0:	e3400000 	movt	r0, #0
    83d4:	ebffff52 	bl	8124 <_Z10SerialPutSPKc>
    83d8:	ebffff30 	bl	80a0 <GetVBAR>
    83dc:	ebffff65 	bl	8178 <_Z12SerialPutHexj>
    83e0:	e3a0000d 	mov	r0, #13
    83e4:	ebffff40 	bl	80ec <SerialPutChar>
    83e8:	e3a03a05 	mov	r3, #20480	; 0x5000
    83ec:	e3433f21 	movt	r3, #16161	; 0x3f21
    83f0:	e5932054 	ldr	r2, [r3, #84]	; 0x54
    83f4:	e3120020 	tst	r2, #32
    83f8:	0afffffc 	beq	83f0 <TimerMain+0xe4>
    83fc:	e3a0200a 	mov	r2, #10
    8400:	e3080858 	movw	r0, #34904	; 0x8858
    8404:	e5832040 	str	r2, [r3, #64]	; 0x40
    8408:	e3400000 	movt	r0, #0
    840c:	ebffff44 	bl	8124 <_Z10SerialPutSPKc>
    8410:	ebffff24 	bl	80a8 <GetSCTLR>
    8414:	e30827e0 	movw	r2, #34784	; 0x87e0
    8418:	e30837e8 	movw	r3, #34792	; 0x87e8
    841c:	e3403000 	movt	r3, #0
    8420:	e3100a02 	tst	r0, #8192	; 0x2000
    8424:	e3402000 	movt	r2, #0
    8428:	01a00003 	moveq	r0, r3
    842c:	11a00002 	movne	r0, r2
    8430:	ebffff3b 	bl	8124 <_Z10SerialPutSPKc>
    8434:	e3080864 	movw	r0, #34916	; 0x8864
    8438:	e3400000 	movt	r0, #0
    843c:	ebffff38 	bl	8124 <_Z10SerialPutSPKc>
    8440:	ebffff16 	bl	80a0 <GetVBAR>
    8444:	e5900000 	ldr	r0, [r0]
    8448:	ebffff4a 	bl	8178 <_Z12SerialPutHexj>
    844c:	e3a0000d 	mov	r0, #13
    8450:	ebffff25 	bl	80ec <SerialPutChar>
    8454:	e3a03a05 	mov	r3, #20480	; 0x5000
    8458:	e3433f21 	movt	r3, #16161	; 0x3f21
    845c:	e5932054 	ldr	r2, [r3, #84]	; 0x54
    8460:	e3120020 	tst	r2, #32
    8464:	0afffffc 	beq	845c <TimerMain+0x150>
    8468:	e3a0200a 	mov	r2, #10
    846c:	e3080880 	movw	r0, #34944	; 0x8880
    8470:	e5832040 	str	r2, [r3, #64]	; 0x40
    8474:	e3400000 	movt	r0, #0
    8478:	ebffff29 	bl	8124 <_Z10SerialPutSPKc>
    847c:	ebffff07 	bl	80a0 <GetVBAR>
    8480:	e5900004 	ldr	r0, [r0, #4]
    8484:	ebffff3b 	bl	8178 <_Z12SerialPutHexj>
    8488:	e3a0000d 	mov	r0, #13
    848c:	ebffff16 	bl	80ec <SerialPutChar>
    8490:	e3a03a05 	mov	r3, #20480	; 0x5000
    8494:	e3433f21 	movt	r3, #16161	; 0x3f21
    8498:	e5932054 	ldr	r2, [r3, #84]	; 0x54
    849c:	e3120020 	tst	r2, #32
    84a0:	0afffffc 	beq	8498 <TimerMain+0x18c>
    84a4:	e3a0200a 	mov	r2, #10
    84a8:	e308089c 	movw	r0, #34972	; 0x889c
    84ac:	e5832040 	str	r2, [r3, #64]	; 0x40
    84b0:	e3400000 	movt	r0, #0
    84b4:	ebffff1a 	bl	8124 <_Z10SerialPutSPKc>
    84b8:	ebfffef8 	bl	80a0 <GetVBAR>
    84bc:	e5900008 	ldr	r0, [r0, #8]
    84c0:	ebffff2c 	bl	8178 <_Z12SerialPutHexj>
    84c4:	e3a0000d 	mov	r0, #13
    84c8:	ebffff07 	bl	80ec <SerialPutChar>
    84cc:	e3a03a05 	mov	r3, #20480	; 0x5000
    84d0:	e3433f21 	movt	r3, #16161	; 0x3f21
    84d4:	e5932054 	ldr	r2, [r3, #84]	; 0x54
    84d8:	e3120020 	tst	r2, #32
    84dc:	0afffffc 	beq	84d4 <TimerMain+0x1c8>
    84e0:	e3a0200a 	mov	r2, #10
    84e4:	e30808b8 	movw	r0, #35000	; 0x88b8
    84e8:	e5832040 	str	r2, [r3, #64]	; 0x40
    84ec:	e3400000 	movt	r0, #0
    84f0:	ebffff0b 	bl	8124 <_Z10SerialPutSPKc>
    84f4:	ebfffee9 	bl	80a0 <GetVBAR>
    84f8:	e590000c 	ldr	r0, [r0, #12]
    84fc:	ebffff1d 	bl	8178 <_Z12SerialPutHexj>
    8500:	e3a0000d 	mov	r0, #13
    8504:	ebfffef8 	bl	80ec <SerialPutChar>
    8508:	e3a03a05 	mov	r3, #20480	; 0x5000
    850c:	e3433f21 	movt	r3, #16161	; 0x3f21
    8510:	e5932054 	ldr	r2, [r3, #84]	; 0x54
    8514:	e3120020 	tst	r2, #32
    8518:	0afffffc 	beq	8510 <TimerMain+0x204>
    851c:	e3a0200a 	mov	r2, #10
    8520:	e30808d4 	movw	r0, #35028	; 0x88d4
    8524:	e5832040 	str	r2, [r3, #64]	; 0x40
    8528:	e3400000 	movt	r0, #0
    852c:	ebfffefc 	bl	8124 <_Z10SerialPutSPKc>
    8530:	ebfffeda 	bl	80a0 <GetVBAR>
    8534:	e5900010 	ldr	r0, [r0, #16]
    8538:	ebffff0e 	bl	8178 <_Z12SerialPutHexj>
    853c:	e3a0000d 	mov	r0, #13
    8540:	ebfffee9 	bl	80ec <SerialPutChar>
    8544:	e3a03a05 	mov	r3, #20480	; 0x5000
    8548:	e3433f21 	movt	r3, #16161	; 0x3f21
    854c:	e5932054 	ldr	r2, [r3, #84]	; 0x54
    8550:	e3120020 	tst	r2, #32
    8554:	0afffffc 	beq	854c <TimerMain+0x240>
    8558:	e3a0200a 	mov	r2, #10
    855c:	e30808f0 	movw	r0, #35056	; 0x88f0
    8560:	e5832040 	str	r2, [r3, #64]	; 0x40
    8564:	e3400000 	movt	r0, #0
    8568:	ebfffeed 	bl	8124 <_Z10SerialPutSPKc>
    856c:	ebfffecb 	bl	80a0 <GetVBAR>
    8570:	e5900014 	ldr	r0, [r0, #20]
    8574:	ebfffeff 	bl	8178 <_Z12SerialPutHexj>
    8578:	e3a0000d 	mov	r0, #13
    857c:	ebfffeda 	bl	80ec <SerialPutChar>
    8580:	e3a03a05 	mov	r3, #20480	; 0x5000
    8584:	e3433f21 	movt	r3, #16161	; 0x3f21
    8588:	e5932054 	ldr	r2, [r3, #84]	; 0x54
    858c:	e3120020 	tst	r2, #32
    8590:	0afffffc 	beq	8588 <TimerMain+0x27c>
    8594:	e3a0200a 	mov	r2, #10
    8598:	e308090c 	movw	r0, #35084	; 0x890c
    859c:	e5832040 	str	r2, [r3, #64]	; 0x40
    85a0:	e3400000 	movt	r0, #0
    85a4:	ebfffede 	bl	8124 <_Z10SerialPutSPKc>
    85a8:	ebfffebc 	bl	80a0 <GetVBAR>
    85ac:	e5900018 	ldr	r0, [r0, #24]
    85b0:	ebfffef0 	bl	8178 <_Z12SerialPutHexj>
    85b4:	e3a0000d 	mov	r0, #13
    85b8:	ebfffecb 	bl	80ec <SerialPutChar>
    85bc:	e3a03a05 	mov	r3, #20480	; 0x5000
    85c0:	e3433f21 	movt	r3, #16161	; 0x3f21
    85c4:	e5932054 	ldr	r2, [r3, #84]	; 0x54
    85c8:	e3120020 	tst	r2, #32
    85cc:	0afffffc 	beq	85c4 <TimerMain+0x2b8>
    85d0:	e3a0200a 	mov	r2, #10
    85d4:	e3080928 	movw	r0, #35112	; 0x8928
    85d8:	e5832040 	str	r2, [r3, #64]	; 0x40
    85dc:	e3400000 	movt	r0, #0
    85e0:	ebfffecf 	bl	8124 <_Z10SerialPutSPKc>
    85e4:	ebfffead 	bl	80a0 <GetVBAR>
    85e8:	e590001c 	ldr	r0, [r0, #28]
    85ec:	ebfffee1 	bl	8178 <_Z12SerialPutHexj>
    85f0:	e3a0000d 	mov	r0, #13
    85f4:	ebfffebc 	bl	80ec <SerialPutChar>
    85f8:	e3a03a05 	mov	r3, #20480	; 0x5000
    85fc:	e3433f21 	movt	r3, #16161	; 0x3f21
    8600:	e5932054 	ldr	r2, [r3, #84]	; 0x54
    8604:	e3120020 	tst	r2, #32
    8608:	0afffffc 	beq	8600 <TimerMain+0x2f4>
    860c:	e3a0200a 	mov	r2, #10
    8610:	e3080944 	movw	r0, #35140	; 0x8944
    8614:	e5832040 	str	r2, [r3, #64]	; 0x40
    8618:	e3400000 	movt	r0, #0
    861c:	ebfffec0 	bl	8124 <_Z10SerialPutSPKc>
    8620:	ebfffe9e 	bl	80a0 <GetVBAR>
    8624:	e5900020 	ldr	r0, [r0, #32]
    8628:	ebfffed2 	bl	8178 <_Z12SerialPutHexj>
    862c:	e3a0000d 	mov	r0, #13
    8630:	ebfffead 	bl	80ec <SerialPutChar>
    8634:	e3a03a05 	mov	r3, #20480	; 0x5000
    8638:	e3433f21 	movt	r3, #16161	; 0x3f21
    863c:	e5932054 	ldr	r2, [r3, #84]	; 0x54
    8640:	e3120020 	tst	r2, #32
    8644:	0afffffc 	beq	863c <TimerMain+0x330>
    8648:	e3a0200a 	mov	r2, #10
    864c:	e3080960 	movw	r0, #35168	; 0x8960
    8650:	e5832040 	str	r2, [r3, #64]	; 0x40
    8654:	e3400000 	movt	r0, #0
    8658:	ebfffeb1 	bl	8124 <_Z10SerialPutSPKc>
    865c:	ebfffe8f 	bl	80a0 <GetVBAR>
    8660:	e5900024 	ldr	r0, [r0, #36]	; 0x24
    8664:	ebfffec3 	bl	8178 <_Z12SerialPutHexj>
    8668:	e3a0000d 	mov	r0, #13
    866c:	ebfffe9e 	bl	80ec <SerialPutChar>
    8670:	e3a03a05 	mov	r3, #20480	; 0x5000
    8674:	e3433f21 	movt	r3, #16161	; 0x3f21
    8678:	e5932054 	ldr	r2, [r3, #84]	; 0x54
    867c:	e3120020 	tst	r2, #32
    8680:	0afffffc 	beq	8678 <TimerMain+0x36c>
    8684:	e3a0200a 	mov	r2, #10
    8688:	e308097c 	movw	r0, #35196	; 0x897c
    868c:	e5832040 	str	r2, [r3, #64]	; 0x40
    8690:	e3400000 	movt	r0, #0
    8694:	ebfffea2 	bl	8124 <_Z10SerialPutSPKc>
    8698:	e3a03a0b 	mov	r3, #45056	; 0xb000
    869c:	e3433f00 	movt	r3, #16128	; 0x3f00
    86a0:	e5930224 	ldr	r0, [r3, #548]	; 0x224
    86a4:	ebfffeb3 	bl	8178 <_Z12SerialPutHexj>
    86a8:	e3a0000d 	mov	r0, #13
    86ac:	ebfffe8e 	bl	80ec <SerialPutChar>
    86b0:	e3a03a05 	mov	r3, #20480	; 0x5000
    86b4:	e3433f21 	movt	r3, #16161	; 0x3f21
    86b8:	e5932054 	ldr	r2, [r3, #84]	; 0x54
    86bc:	e3120020 	tst	r2, #32
    86c0:	0afffffc 	beq	86b8 <TimerMain+0x3ac>
    86c4:	e3a0600a 	mov	r6, #10
    86c8:	e304523f 	movw	r5, #16959	; 0x423f
    86cc:	e5836040 	str	r6, [r3, #64]	; 0x40
    86d0:	e30879d8 	movw	r7, #35288	; 0x89d8
    86d4:	e340500f 	movt	r5, #15
    86d8:	ebfffe6a 	bl	8088 <EnableInterrupts>
    86dc:	e3407000 	movt	r7, #0
    86e0:	e30809a0 	movw	r0, #35232	; 0x89a0
    86e4:	e3400000 	movt	r0, #0
    86e8:	e3a04a05 	mov	r4, #20480	; 0x5000
    86ec:	e3434f21 	movt	r4, #16161	; 0x3f21
    86f0:	ebfffe8b 	bl	8124 <_Z10SerialPutSPKc>
    86f4:	e3a03000 	mov	r3, #0
    86f8:	e58d3004 	str	r3, [sp, #4]
    86fc:	e59d3004 	ldr	r3, [sp, #4]
    8700:	e1530005 	cmp	r3, r5
    8704:	ca000005 	bgt	8720 <TimerMain+0x414>
    8708:	e59d3004 	ldr	r3, [sp, #4]
    870c:	e2833001 	add	r3, r3, #1
    8710:	e58d3004 	str	r3, [sp, #4]
    8714:	e59d3004 	ldr	r3, [sp, #4]
    8718:	e1530005 	cmp	r3, r5
    871c:	dafffff9 	ble	8708 <TimerMain+0x3fc>
    8720:	e1a00007 	mov	r0, r7
    8724:	ebfffe7e 	bl	8124 <_Z10SerialPutSPKc>
    8728:	e3a03101 	mov	r3, #1073741824	; 0x40000000
    872c:	e593001c 	ldr	r0, [r3, #28]
    8730:	ebfffe90 	bl	8178 <_Z12SerialPutHexj>
    8734:	e3a0000d 	mov	r0, #13
    8738:	ebfffe6b 	bl	80ec <SerialPutChar>
    873c:	e5943054 	ldr	r3, [r4, #84]	; 0x54
    8740:	e3130020 	tst	r3, #32
    8744:	0afffffc 	beq	873c <TimerMain+0x430>
    8748:	e2566001 	subs	r6, r6, #1
    874c:	e3a0300a 	mov	r3, #10
    8750:	e5843040 	str	r3, [r4, #64]	; 0x40
    8754:	1affffe6 	bne	86f4 <TimerMain+0x3e8>
    8758:	eafffffe 	b	8758 <TimerMain+0x44c>
    875c:	00000000 	andeq	r0, r0, r0

00008760 <Halt>:
    8760:	e320f003 	wfi
    8764:	eafffffd 	b	8760 <Halt>

00008768 <Dummy>:
    8768:	e1a0f00e 	mov	pc, lr

0000876c <IvtFunc>:
    876c:	e59f0030 	ldr	r0, [pc, #48]	; 87a4 <IVT+0x24>
    8770:	e1a0f000 	mov	pc, r0
    8774:	e320f000 	nop	{0}
    8778:	e320f000 	nop	{0}
    877c:	e320f000 	nop	{0}

00008780 <IVT>:
    8780:	e320f000 	nop	{0}
    8784:	e320f000 	nop	{0}
    8788:	e320f000 	nop	{0}
    878c:	e320f000 	nop	{0}
    8790:	e320f000 	nop	{0}
    8794:	e320f000 	nop	{0}
    8798:	e320f000 	nop	{0}
    879c:	e59f0004 	ldr	r0, [pc, #4]	; 87a8 <IVT+0x28>
    87a0:	e1a0f000 	mov	pc, r0
    87a4:	00008780 	andeq	r8, r0, r0, lsl #15
    87a8:	000080c0 	andeq	r8, r0, r0, asr #1
